Archive member included to satisfy reference by file (symbol)

arch/arm/lib/lib.a(lib1funcs.o)
                              arch/arm/mach-omap2/built-in.o (__aeabi_uidiv)
arch/arm/lib/lib.a(div0.o)    arch/arm/lib/lib.a(lib1funcs.o) (__div0)

Discarded input sections

 .data          0x0000000000000000        0x0 arch/arm/cpu/armv7/start.o
 .bss           0x0000000000000000        0x0 arch/arm/cpu/armv7/start.o
 .text.get_dpll_mpu_params
                0x0000000000000000        0x8 arch/arm/mach-omap2/built-in.o
 .text.set_mpu_spreadspectrum
                0x0000000000000000       0xc0 arch/arm/mach-omap2/built-in.o
 .text.do_disable_clocks
                0x0000000000000000       0x6c arch/arm/mach-omap2/built-in.o
 .text.scale_vcores
                0x0000000000000000        0x2 arch/arm/mach-omap2/built-in.o
 .text.rtc_only_prcm_init
                0x0000000000000000       0x1c arch/arm/mach-omap2/built-in.o
 .text.get_cpu_rev
                0x0000000000000000       0x10 arch/arm/mach-omap2/built-in.o
 .text.get_cpu_type
                0x0000000000000000       0x14 arch/arm/mach-omap2/built-in.o
 .text.get_sysboot_value
                0x0000000000000000       0x14 arch/arm/mach-omap2/built-in.o
 .text.print_cpuinfo
                0x0000000000000000       0x90 arch/arm/mach-omap2/built-in.o
 .text.am335x_get_mpu_vdd
                0x0000000000000000       0x20 arch/arm/mach-omap2/built-in.o
 .text.dram_init
                0x0000000000000000       0x1a arch/arm/mach-omap2/built-in.o
 .text.arch_cpu_init_dm
                0x0000000000000000        0xe arch/arm/mach-omap2/built-in.o
 .text.set_uart_mux_conf
                0x0000000000000000        0x2 arch/arm/mach-omap2/built-in.o
 .text.set_mux_conf_regs
                0x0000000000000000        0x2 arch/arm/mach-omap2/built-in.o
 .text.ft_cpu_setup
                0x0000000000000000        0x2 arch/arm/mach-omap2/built-in.o
 .text.clk_synthesizer_reg_write
                0x0000000000000000       0x38 arch/arm/mach-omap2/built-in.o
 .text.setup_clock_synthesizer
                0x0000000000000000       0x94 arch/arm/mach-omap2/built-in.o
 .text.warm_reset
                0x0000000000000000       0x1c arch/arm/mach-omap2/built-in.o
 .text.setup_warmreset_time
                0x0000000000000000        0x2 arch/arm/mach-omap2/built-in.o
 .text.get_ticks
                0x0000000000000000        0xa arch/arm/mach-omap2/built-in.o
 .text.get_tbclk
                0x0000000000000000        0x6 arch/arm/mach-omap2/built-in.o
 .text.do_cancel_out
                0x0000000000000000       0x44 arch/arm/mach-omap2/built-in.o
 .text.omap_set_fastboot_vars
                0x0000000000000000      0x148 arch/arm/mach-omap2/built-in.o
 .text.cancel_out
                0x0000000000000000       0x62 arch/arm/mach-omap2/built-in.o
 .text.omap_die_id
                0x0000000000000000        0xc arch/arm/mach-omap2/built-in.o
 .text.omap_die_id_serial
                0x0000000000000000       0x4c arch/arm/mach-omap2/built-in.o
 .text.omap_die_id_get_board_serial
                0x0000000000000000       0x24 arch/arm/mach-omap2/built-in.o
 .text.omap_die_id_usbethaddr
                0x0000000000000000       0x6c arch/arm/mach-omap2/built-in.o
 .text.omap_die_id_display
                0x0000000000000000       0x2c arch/arm/mach-omap2/built-in.o
 .text.get_device_type
                0x0000000000000000       0x18 arch/arm/mach-omap2/built-in.o
 .text.enable_caches
                0x0000000000000000       0x14 arch/arm/mach-omap2/built-in.o
 .text.dram_bank_mmu_setup
                0x0000000000000000       0x26 arch/arm/mach-omap2/built-in.o
 .text.arm_init_domains
                0x0000000000000000       0x16 arch/arm/mach-omap2/built-in.o
 .text.fb_set_reboot_flag
                0x0000000000000000       0x24 arch/arm/mach-omap2/built-in.o
 .text.enable_gpmc_cs_config
                0x0000000000000000       0x6c arch/arm/mach-omap2/built-in.o
 .text.set_gpmc_cs0
                0x0000000000000000       0x18 arch/arm/mach-omap2/built-in.o
 .text.gpmc_init
                0x0000000000000000       0x50 arch/arm/mach-omap2/built-in.o
 .rodata.cmdpll
                0x0000000000000000        0x4 arch/arm/mach-omap2/built-in.o
 .rodata.cmper  0x0000000000000000        0x4 arch/arm/mach-omap2/built-in.o
 .rodata.cmrtc  0x0000000000000000        0x4 arch/arm/mach-omap2/built-in.o
 .rodata.dpll_core_opp100
                0x0000000000000000       0x10 arch/arm/mach-omap2/built-in.o
 .rodata.dpll_disp_regs
                0x0000000000000000       0x24 arch/arm/mach-omap2/built-in.o
 .rodata.set_mpu_spreadspectrum.str1.1
                0x0000000000000000       0x31 arch/arm/mach-omap2/built-in.o
 .rodata.do_disable_clocks.str1.1
                0x0000000000000000       0x2b arch/arm/mach-omap2/built-in.o
 .rodata.CSWTCH.9
                0x0000000000000000       0x4c arch/arm/mach-omap2/built-in.o
 .rodata.dev_types
                0x0000000000000000       0x10 arch/arm/mach-omap2/built-in.o
 .rodata.print_cpuinfo.str1.1
                0x0000000000000000       0x3d arch/arm/mach-omap2/built-in.o
 .rodata.clk_synthesizer_reg_write.str1.1
                0x0000000000000000       0x33 arch/arm/mach-omap2/built-in.o
 .rodata.setup_clock_synthesizer.str1.1
                0x0000000000000000       0x4f arch/arm/mach-omap2/built-in.o
 .rodata.omap_die_id_display.str1.1
                0x0000000000000000       0x1f arch/arm/mach-omap2/built-in.o
 .rodata.omap_die_id_serial.str1.1
                0x0000000000000000       0x11 arch/arm/mach-omap2/built-in.o
 .rodata.omap_die_id_usbethaddr.str1.1
                0x0000000000000000       0x13 arch/arm/mach-omap2/built-in.o
 .rodata.omap_set_fastboot_vars.str1.1
                0x0000000000000000      0x124 arch/arm/mach-omap2/built-in.o
 .rodata.fb_set_reboot_flag.str1.1
                0x0000000000000000       0x32 arch/arm/mach-omap2/built-in.o
 .data          0x0000000000000000        0x0 arch/arm/mach-omap2/built-in.o
 .data.cpu_revs
                0x0000000000000000        0xc arch/arm/mach-omap2/built-in.o
 .data.cpu_revs_am43xx
                0x0000000000000000        0xc arch/arm/mach-omap2/built-in.o
 .data.gpmc_cfg
                0x0000000000000000        0x4 arch/arm/mach-omap2/built-in.o
 .data.gpmc_cs0_flash
                0x0000000000000000        0x1 arch/arm/mach-omap2/built-in.o
 .bss           0x0000000000000000        0x0 arch/arm/mach-omap2/built-in.o
 .text.v7_outer_cache_enable
                0x0000000000000000        0x2 arch/arm/cpu/armv7/built-in.o
 .text.arm_init_before_mmu
                0x0000000000000000       0x22 arch/arm/cpu/armv7/built-in.o
 .text.mmu_page_table_flush
                0x0000000000000000       0x1e arch/arm/cpu/armv7/built-in.o
 .text.v7_outer_cache_inval_range
                0x0000000000000000        0x2 arch/arm/cpu/armv7/built-in.o
 .text.invalidate_dcache_range
                0x0000000000000000       0x42 arch/arm/cpu/armv7/built-in.o
 .text.v7_arch_cp15_set_l2aux_ctrl
                0x0000000000000000        0x6 arch/arm/cpu/armv7/built-in.o
 .text.v7_arch_cp15_set_acr
                0x0000000000000000        0x6 arch/arm/cpu/armv7/built-in.o
 .text.sdelay   0x0000000000000000        0x6 arch/arm/cpu/armv7/built-in.o
 .text.s_init   0x0000000000000000        0x4 arch/arm/cpu/armv7/built-in.o
 .data          0x0000000000000000        0x0 arch/arm/cpu/armv7/built-in.o
 .bss           0x0000000000000000        0x0 arch/arm/cpu/armv7/built-in.o
 .text.setjmp   0x0000000000000000       0x10 arch/arm/lib/built-in.o
 .text.longjmp  0x0000000000000000       0x1c arch/arm/lib/built-in.o
 .text.board_init_f
                0x0000000000000000        0x2 arch/arm/lib/built-in.o
 .text.arch_reserve_stacks
                0x0000000000000000       0x16 arch/arm/lib/built-in.o
 .text.interrupt_init
                0x0000000000000000       0x14 arch/arm/lib/built-in.o
 .text.enable_interrupts
                0x0000000000000000        0x2 arch/arm/lib/built-in.o
 .text.bad_mode
                0x0000000000000000        0xc arch/arm/lib/built-in.o
 .text.show_regs
                0x0000000000000000      0x108 arch/arm/lib/built-in.o
 .text.do_undefined_instruction
                0x0000000000000000       0x20 arch/arm/lib/built-in.o
 .text.do_software_interrupt
                0x0000000000000000       0x20 arch/arm/lib/built-in.o
 .text.do_prefetch_abort
                0x0000000000000000       0x20 arch/arm/lib/built-in.o
 .text.do_data_abort
                0x0000000000000000       0x20 arch/arm/lib/built-in.o
 .text.do_not_used
                0x0000000000000000       0x20 arch/arm/lib/built-in.o
 .text.do_fiq   0x0000000000000000       0x20 arch/arm/lib/built-in.o
 .text.do_irq   0x0000000000000000       0x20 arch/arm/lib/built-in.o
 .text.enable_caches
                0x0000000000000000        0xc arch/arm/lib/built-in.o
 .text.invalidate_dcache_range
                0x0000000000000000        0x2 arch/arm/lib/built-in.o
 .text.flush_dcache_range
                0x0000000000000000        0x2 arch/arm/lib/built-in.o
 .text.flush_cache
                0x0000000000000000        0x6 arch/arm/lib/built-in.o
 .text.flush_dcache_all
                0x0000000000000000        0xa arch/arm/lib/built-in.o
 .text.invalidate_l2_cache
                0x0000000000000000        0xc arch/arm/lib/built-in.o
 .text.arm_init_before_mmu
                0x0000000000000000        0x2 arch/arm/lib/built-in.o
 .text.arm_init_domains
                0x0000000000000000        0x2 arch/arm/lib/built-in.o
 .text.set_section_dcache
                0x0000000000000000       0x12 arch/arm/lib/built-in.o
 .text.mmu_page_table_flush
                0x0000000000000000        0x2 arch/arm/lib/built-in.o
 .text.mmu_set_region_dcache_behaviour
                0x0000000000000000       0x40 arch/arm/lib/built-in.o
 .text.dram_bank_mmu_setup
                0x0000000000000000       0x2a arch/arm/lib/built-in.o
 .text.icache_status
                0x0000000000000000        0xa arch/arm/lib/built-in.o
 .text.dcache_enable
                0x0000000000000000       0x6e arch/arm/lib/built-in.o
 .text.dcache_status
                0x0000000000000000        0xa arch/arm/lib/built-in.o
 .text.fdt_psci
                0x0000000000000000        0x4 arch/arm/lib/built-in.o
 .rodata        0x0000000000000000       0x80 arch/arm/lib/built-in.o
 .rodata.bad_mode.str1.1
                0x0000000000000000       0x13 arch/arm/lib/built-in.o
 .rodata.do_data_abort.str1.1
                0x0000000000000000        0xc arch/arm/lib/built-in.o
 .rodata.do_fiq.str1.1
                0x0000000000000000       0x18 arch/arm/lib/built-in.o
 .rodata.do_irq.str1.1
                0x0000000000000000       0x13 arch/arm/lib/built-in.o
 .rodata.do_not_used.str1.1
                0x0000000000000000        0xa arch/arm/lib/built-in.o
 .rodata.do_prefetch_abort.str1.1
                0x0000000000000000       0x10 arch/arm/lib/built-in.o
 .rodata.do_software_interrupt.str1.1
                0x0000000000000000       0x14 arch/arm/lib/built-in.o
 .rodata.do_undefined_instruction.str1.1
                0x0000000000000000       0x17 arch/arm/lib/built-in.o
 .rodata.show_regs.str1.1
                0x0000000000000000      0x129 arch/arm/lib/built-in.o
 .rodata.str1.1
                0x0000000000000000       0xeb arch/arm/lib/built-in.o
 .rodata.enable_caches.str1.1
                0x0000000000000000       0x1d arch/arm/lib/built-in.o
 .data          0x0000000000000000        0x0 arch/arm/lib/built-in.o
 .__bss_end     0x0000000000000000        0x0 arch/arm/lib/built-in.o
 .__bss_start   0x0000000000000000        0x0 arch/arm/lib/built-in.o
 .__efi_runtime_rel_start
                0x0000000000000000        0x0 arch/arm/lib/built-in.o
 .__efi_runtime_rel_stop
                0x0000000000000000        0x0 arch/arm/lib/built-in.o
 .__efi_runtime_start
                0x0000000000000000        0x0 arch/arm/lib/built-in.o
 .__efi_runtime_stop
                0x0000000000000000        0x0 arch/arm/lib/built-in.o
 .__end         0x0000000000000000        0x0 arch/arm/lib/built-in.o
 .__image_copy_end
                0x0000000000000000        0x0 arch/arm/lib/built-in.o
 .__image_copy_start
                0x0000000000000000        0x0 arch/arm/lib/built-in.o
 .__rel_dyn_end
                0x0000000000000000        0x0 arch/arm/lib/built-in.o
 .__rel_dyn_start
                0x0000000000000000        0x0 arch/arm/lib/built-in.o
 .__secure_end  0x0000000000000000        0x0 arch/arm/lib/built-in.o
 .__secure_stack_end
                0x0000000000000000        0x0 arch/arm/lib/built-in.o
 .__secure_stack_start
                0x0000000000000000        0x0 arch/arm/lib/built-in.o
 .__secure_start
                0x0000000000000000        0x0 arch/arm/lib/built-in.o
 .bss           0x0000000000000000        0x0 arch/arm/lib/built-in.o
 .text          0x0000000000000000        0x0 board/ti/am335x/built-in.o
 .text.enable_uart1_pin_mux
                0x0000000000000000        0xc board/ti/am335x/built-in.o
 .text.enable_uart2_pin_mux
                0x0000000000000000        0xc board/ti/am335x/built-in.o
 .text.enable_uart3_pin_mux
                0x0000000000000000        0xc board/ti/am335x/built-in.o
 .text.enable_uart4_pin_mux
                0x0000000000000000        0xc board/ti/am335x/built-in.o
 .text.enable_uart5_pin_mux
                0x0000000000000000        0xc board/ti/am335x/built-in.o
 .text.board_init
                0x0000000000000000       0x18 board/ti/am335x/built-in.o
 .text.board_late_init
                0x0000000000000000       0xf0 board/ti/am335x/built-in.o
 .rodata.board_late_init.str1.1
                0x0000000000000000       0x4b board/ti/am335x/built-in.o
 .data          0x0000000000000000        0x0 board/ti/am335x/built-in.o
 .data.uart1_pin_mux
                0x0000000000000000       0x18 board/ti/am335x/built-in.o
 .data.uart2_pin_mux
                0x0000000000000000       0x18 board/ti/am335x/built-in.o
 .data.uart3_pin_mux
                0x0000000000000000       0x18 board/ti/am335x/built-in.o
 .data.uart4_pin_mux
                0x0000000000000000       0x18 board/ti/am335x/built-in.o
 .data.uart5_pin_mux
                0x0000000000000000       0x18 board/ti/am335x/built-in.o
 .bss           0x0000000000000000        0x0 board/ti/am335x/built-in.o
 .text          0x0000000000000000        0x0 board/ti/common/built-in.o
 .text.ti_i2c_set_alen
                0x0000000000000000        0x4 board/ti/common/built-in.o
 .text.gpi2c_init
                0x0000000000000000        0x2 board/ti/common/built-in.o
 .text.ti_i2c_eeprom_am_set
                0x0000000000000000       0x60 board/ti/common/built-in.o
 .text.ti_i2c_eeprom_dra7_get
                0x0000000000000000       0xa8 board/ti/common/built-in.o
 .text.board_ti_rev_is
                0x0000000000000000       0x34 board/ti/common/built-in.o
 .text.board_ti_get_name
                0x0000000000000000        0x8 board/ti/common/built-in.o
 .text.board_ti_get_eth_mac_addr
                0x0000000000000000       0x34 board/ti/common/built-in.o
 .text.board_ti_get_emif1_size
                0x0000000000000000       0x20 board/ti/common/built-in.o
 .text.board_ti_get_emif2_size
                0x0000000000000000       0x20 board/ti/common/built-in.o
 .text.set_board_info_env
                0x0000000000000000       0x3c board/ti/common/built-in.o
 .text.board_ti_set_ethaddr
                0x0000000000000000      0x128 board/ti/common/built-in.o
 .text.board_ti_was_eeprom_read
                0x0000000000000000       0x18 board/ti/common/built-in.o
 .rodata.__func__.9559
                0x0000000000000000       0x15 board/ti/common/built-in.o
 .rodata.board_ti_set_ethaddr.str1.1
                0x0000000000000000       0x34 board/ti/common/built-in.o
 .rodata.set_board_info_env.str1.1
                0x0000000000000000       0x22 board/ti/common/built-in.o
 .rodata.ti_i2c_eeprom_am_set.str1.1
                0x0000000000000000        0x5 board/ti/common/built-in.o
 .rodata.ti_i2c_eeprom_dra7_get.str1.1
                0x0000000000000000        0x6 board/ti/common/built-in.o
 .data          0x0000000000000000        0x0 board/ti/common/built-in.o
 .bss           0x0000000000000000        0x0 board/ti/common/built-in.o
 .text          0x0000000000000000        0x0 common/spl/built-in.o
 .text.spl_start_uboot
                0x0000000000000000       0x1c common/spl/built-in.o
 .text.dram_init_banksize
                0x0000000000000000        0x4 common/spl/built-in.o
 .text.bootz_setup
                0x0000000000000000        0x4 common/spl/built-in.o
 .text.jump_to_image_no_args
                0x0000000000000000        0x6 common/spl/built-in.o
 .text.spl_boot_mode
                0x0000000000000000        0x4 common/spl/built-in.o
 .rodata.spl_start_uboot.str1.1
                0x0000000000000000       0x5c common/spl/built-in.o
 .bss           0x0000000000000000        0x0 common/spl/built-in.o
 .bss.boot_params_ptr
                0x0000000000000000        0x4 common/spl/built-in.o
 .text          0x0000000000000000        0x0 common/init/built-in.o
 .text.show_boot_progress
                0x0000000000000000        0x2 common/init/built-in.o
 .data          0x0000000000000000        0x0 common/init/built-in.o
 .bss           0x0000000000000000        0x0 common/init/built-in.o
 .text          0x0000000000000000        0x0 common/built-in.o
 .text.of_bus_default_map
                0x0000000000000000       0x80 common/built-in.o
 .text.fdt_read_prop
                0x0000000000000000       0x3c common/built-in.o
 .text.of_bus_default_translate
                0x0000000000000000       0x68 common/built-in.o
 .text.fdt_support_default_count_cells
                0x0000000000000000       0x34 common/built-in.o
 .text.fdt_getprop_u32_default_node
                0x0000000000000000       0x24 common/built-in.o
 .text.fdt_getprop_u32_default
                0x0000000000000000       0x24 common/built-in.o
 .text.fdt_find_and_setprop
                0x0000000000000000       0x46 common/built-in.o
 .text.fdt_root
                0x0000000000000000       0x60 common/built-in.o
 .text.fdt_initrd
                0x0000000000000000      0x134 common/built-in.o
 .text.fdt_chosen
                0x0000000000000000       0x6c common/built-in.o
 .text.do_fixup_by_path
                0x0000000000000000       0x34 common/built-in.o
 .text.do_fixup_by_path_u32
                0x0000000000000000       0x1a common/built-in.o
 .text.do_fixup_by_prop
                0x0000000000000000       0x5e common/built-in.o
 .text.do_fixup_by_prop_u32
                0x0000000000000000       0x24 common/built-in.o
 .text.do_fixup_by_compat
                0x0000000000000000       0x50 common/built-in.o
 .text.do_fixup_by_compat_u32
                0x0000000000000000       0x1a common/built-in.o
 .text.fdt_fixup_memory
                0x0000000000000000       0x16 common/built-in.o
 .text.fdt_fixup_ethernet
                0x0000000000000000      0x10c common/built-in.o
 .text.fdt_record_loadable
                0x0000000000000000       0xf4 common/built-in.o
 .text.fdt_increase_size
                0x0000000000000000        0xc common/built-in.o
 .text.fdt_del_node_and_alias
                0x0000000000000000       0x30 common/built-in.o
 .text.fdt_translate_address
                0x0000000000000000      0x170 common/built-in.o
 .text.fdt_node_offset_by_compat_reg
                0x0000000000000000       0x5c common/built-in.o
 .text.fdt_alloc_phandle
                0x0000000000000000       0x36 common/built-in.o
 .text.fdt_set_phandle
                0x0000000000000000       0x40 common/built-in.o
 .text.fdt_create_phandle
                0x0000000000000000       0x40 common/built-in.o
 .text.fdt_set_node_status
                0x0000000000000000       0x90 common/built-in.o
 .text.fdt_set_status_by_alias
                0x0000000000000000       0x1c common/built-in.o
 .text.fdt_verify_alias_address
                0x0000000000000000       0x88 common/built-in.o
 .text.fdt_get_base_address
                0x0000000000000000       0x28 common/built-in.o
 .text.fdt_read_range
                0x0000000000000000       0xd0 common/built-in.o
 .text.fdt_setup_simplefb_node
                0x0000000000000000      0x160 common/built-in.o
 .text.fdt_fixup_display
                0x0000000000000000       0x84 common/built-in.o
 .text.fdt_overlay_apply_verbose
                0x0000000000000000       0x4c common/built-in.o
 .text.console_setfile
                0x0000000000000000       0x74 common/built-in.o
 .text.serial_printf
                0x0000000000000000       0x32 common/built-in.o
 .text.fprintf  0x0000000000000000       0x36 common/built-in.o
 .text.ctrlc    0x0000000000000000       0x38 common/built-in.o
 .text.confirm_yesno
                0x0000000000000000       0x80 common/built-in.o
 .text.disable_ctrlc
                0x0000000000000000       0x10 common/built-in.o
 .text.had_ctrlc
                0x0000000000000000        0xc common/built-in.o
 .text.clear_ctrlc
                0x0000000000000000        0xc common/built-in.o
 .text.search_device
                0x0000000000000000       0x16 common/built-in.o
 .text.console_assign
                0x0000000000000000       0x2a common/built-in.o
 .text.console_announce_r
                0x0000000000000000       0x50 common/built-in.o
 .text.console_init_f
                0x0000000000000000        0xa common/built-in.o
 .text.stdio_print_current_devices
                0x0000000000000000       0x78 common/built-in.o
 .text.console_init_r
                0x0000000000000000       0x8c common/built-in.o
 .text.sbrk     0x0000000000000000       0x40 common/built-in.o
 .text.malloc_trim
                0x0000000000000000       0x84 common/built-in.o
 .text.fREe     0x0000000000000000      0x164 common/built-in.o
 .text.mALLOc   0x0000000000000000      0x41c common/built-in.o
 .text.cALLOc   0x0000000000000000       0xb8 common/built-in.o
 .text.rEALLOc  0x0000000000000000      0x2d0 common/built-in.o
 .text.mEMALIGn
                0x0000000000000000      0x10a common/built-in.o
 .text.vALLOc   0x0000000000000000        0xa common/built-in.o
 .text.pvALLOc  0x0000000000000000       0x14 common/built-in.o
 .text.cfree    0x0000000000000000        0x4 common/built-in.o
 .text.malloc_usable_size
                0x0000000000000000       0x30 common/built-in.o
 .text.mALLOPt  0x0000000000000000       0x30 common/built-in.o
 .text.initf_malloc
                0x0000000000000000       0x14 common/built-in.o
 .text.image_check_hcrc
                0x0000000000000000       0x2a common/built-in.o
 .text.image_check_dcrc
                0x0000000000000000       0x22 common/built-in.o
 .text.image_multi_count
                0x0000000000000000       0x12 common/built-in.o
 .text.image_multi_getimg
                0x0000000000000000       0x4c common/built-in.o
 .text.env_get_bootm_low
                0x0000000000000000       0x20 common/built-in.o
 .text.env_get_bootm_size
                0x0000000000000000       0x44 common/built-in.o
 .text.env_get_bootm_mapsize
                0x0000000000000000       0x20 common/built-in.o
 .text.memmove_wd
                0x0000000000000000       0x4c common/built-in.o
 .text.genimg_print_size
                0x0000000000000000       0x24 common/built-in.o
 .text.get_table_entry
                0x0000000000000000       0x12 common/built-in.o
 .text.genimg_get_short_name
                0x0000000000000000       0x14 common/built-in.o
 .text.genimg_get_cat_name
                0x0000000000000000       0x38 common/built-in.o
 .text.genimg_get_cat_short_name
                0x0000000000000000       0x38 common/built-in.o
 .text.genimg_get_cat_count
                0x0000000000000000       0x10 common/built-in.o
 .text.genimg_get_cat_desc
                0x0000000000000000       0x10 common/built-in.o
 .text.get_table_entry_name
                0x0000000000000000       0x12 common/built-in.o
 .text.genimg_get_os_name
                0x0000000000000000       0x14 common/built-in.o
 .text.genimg_get_arch_name
                0x0000000000000000       0x14 common/built-in.o
 .text.genimg_get_type_name
                0x0000000000000000       0x14 common/built-in.o
 .text.genimg_get_type_short_name
                0x0000000000000000        0xc common/built-in.o
 .text.genimg_get_comp_name
                0x0000000000000000       0x14 common/built-in.o
 .text.image_print_contents
                0x0000000000000000      0x114 common/built-in.o
 .text.genimg_get_comp_short_name
                0x0000000000000000        0xc common/built-in.o
 .text.genimg_get_os_short_name
                0x0000000000000000        0xc common/built-in.o
 .text.genimg_get_arch_short_name
                0x0000000000000000        0xc common/built-in.o
 .text.get_table_entry_id
                0x0000000000000000       0x26 common/built-in.o
 .text.genimg_get_os_id
                0x0000000000000000       0x14 common/built-in.o
 .text.genimg_get_arch_id
                0x0000000000000000       0x14 common/built-in.o
 .text.genimg_get_type_id
                0x0000000000000000       0x14 common/built-in.o
 .text.genimg_get_comp_id
                0x0000000000000000       0x14 common/built-in.o
 .text.genimg_get_kernel_addr_fit
                0x0000000000000000       0x14 common/built-in.o
 .text.genimg_get_kernel_addr
                0x0000000000000000       0x18 common/built-in.o
 .text.genimg_get_format
                0x0000000000000000       0x30 common/built-in.o
 .text.genimg_has_config
                0x0000000000000000        0x4 common/built-in.o
 .text.boot_get_ramdisk
                0x0000000000000000      0x1d8 common/built-in.o
 .text.boot_ramdisk_high
                0x0000000000000000       0xc4 common/built-in.o
 .text.boot_get_setup
                0x0000000000000000        0x6 common/built-in.o
 .text.image_setup_linux
                0x0000000000000000       0x3a common/built-in.o
 .text.android_image_get_kernel
                0x0000000000000000      0x160 common/built-in.o
 .text.android_image_check_header
                0x0000000000000000       0x10 common/built-in.o
 .text.android_image_get_end
                0x0000000000000000       0x78 common/built-in.o
 .text.android_image_get_kload
                0x0000000000000000       0x40 common/built-in.o
 .text.android_image_get_ramdisk
                0x0000000000000000       0xa4 common/built-in.o
 .text.android_image_get_second
                0x0000000000000000       0xa8 common/built-in.o
 .text.fdt_error
                0x0000000000000000       0x24 common/built-in.o
 .text.boot_fdt_add_mem_rsv_regions
                0x0000000000000000       0x5c common/built-in.o
 .text.boot_relocate_fdt
                0x0000000000000000      0x110 common/built-in.o
 .text.boot_get_fdt
                0x0000000000000000      0x1ac common/built-in.o
 .text.ft_verify_fdt
                0x0000000000000000        0x4 common/built-in.o
 .text.arch_fixup_fdt
                0x0000000000000000        0x4 common/built-in.o
 .text.image_setup_libfdt
                0x0000000000000000       0xa8 common/built-in.o
 .text.get_effective_memsize
                0x0000000000000000        0x6 common/built-in.o
 .text.stdio_serial_tstc
                0x0000000000000000        0x4 common/built-in.o
 .text.stdio_serial_getc
                0x0000000000000000        0x4 common/built-in.o
 .text.stdio_serial_puts
                0x0000000000000000        0x6 common/built-in.o
 .text.stdio_serial_putc
                0x0000000000000000        0x6 common/built-in.o
 .text.stdio_get_list
                0x0000000000000000        0x8 common/built-in.o
 .text.stdio_get_by_name
                0x0000000000000000       0x30 common/built-in.o
 .text.stdio_clone
                0x0000000000000000       0x22 common/built-in.o
 .text.stdio_register_dev
                0x0000000000000000       0x34 common/built-in.o
 .text.stdio_register
                0x0000000000000000        0x6 common/built-in.o
 .text.stdio_init_tables
                0x0000000000000000       0x14 common/built-in.o
 .text.stdio_add_devices
                0x0000000000000000       0x54 common/built-in.o
 .text.stdio_init
                0x0000000000000000        0xe common/built-in.o
 .text.run_command
                0x0000000000000000        0xe common/built-in.o
 .text.run_command_repeatable
                0x0000000000000000       0x12 common/built-in.o
 .text.run_command_list
                0x0000000000000000       0x38 common/built-in.o
 .text.do_run   0x0000000000000000       0x4c common/built-in.o
 .text.cli_loop
                0x0000000000000000        0x8 common/built-in.o
 .text.cli_init
                0x0000000000000000        0x4 common/built-in.o
 .text.run_usb_dnl_gadget
                0x0000000000000000       0xc4 common/built-in.o
 .text.find_cmd_tbl
                0x0000000000000000       0x60 common/built-in.o
 .text.find_cmd
                0x0000000000000000       0x1c common/built-in.o
 .text.cmd_usage
                0x0000000000000000       0x3c common/built-in.o
 .text._do_help
                0x0000000000000000      0x108 common/built-in.o
 .text.var_complete
                0x0000000000000000       0x48 common/built-in.o
 .text.cmd_auto_complete
                0x0000000000000000      0x2e0 common/built-in.o
 .text.cmd_get_data_size
                0x0000000000000000       0x34 common/built-in.o
 .text.cmd_process
                0x0000000000000000       0x94 common/built-in.o
 .text.cmd_process_error
                0x0000000000000000       0x18 common/built-in.o
 .text.hex1_bin
                0x0000000000000000       0x2a common/built-in.o
 .text.hex2_bin
                0x0000000000000000       0x24 common/built-in.o
 .text.srec_decode
                0x0000000000000000      0x17a common/built-in.o
 .rodata.__FUNCTION__.9061
                0x0000000000000000       0x17 common/built-in.o
 .rodata.__func__.8943
                0x0000000000000000       0x14 common/built-in.o
 .rodata.do_fixup_by_path.str1.1
                0x0000000000000000       0x29 common/built-in.o
 .rodata.fdt_chosen.str1.1
                0x0000000000000000       0x3e common/built-in.o
 .rodata.fdt_create_phandle.str1.1
                0x0000000000000000       0x1a common/built-in.o
 .rodata.fdt_fixup_display.str1.1
                0x0000000000000000       0x1c common/built-in.o
 .rodata.fdt_fixup_ethernet.str1.1
                0x0000000000000000       0x42 common/built-in.o
 .rodata.fdt_initrd.str1.1
                0x0000000000000000       0x97 common/built-in.o
 .rodata.fdt_overlay_apply_verbose.str1.1
                0x0000000000000000       0x83 common/built-in.o
 .rodata.fdt_read_range.str1.1
                0x0000000000000000        0xf common/built-in.o
 .rodata.fdt_record_loadable.str1.1
                0x0000000000000000       0x2e common/built-in.o
 .rodata.fdt_root.str1.1
                0x0000000000000000       0x4e common/built-in.o
 .rodata.fdt_set_node_status.str1.1
                0x0000000000000000       0x3a common/built-in.o
 .rodata.fdt_set_phandle.str1.1
                0x0000000000000000       0x16 common/built-in.o
 .rodata.fdt_setup_simplefb_node.str1.1
                0x0000000000000000       0x2c common/built-in.o
 .rodata.fdt_support_default_count_cells.str1.1
                0x0000000000000000        0xc common/built-in.o
 .rodata.fdt_translate_address.str1.1
                0x0000000000000000       0x22 common/built-in.o
 .rodata.fdt_verify_alias_address.str1.1
                0x0000000000000000       0xcd common/built-in.o
 .rodata.confirm_yesno.str1.1
                0x0000000000000000       0x10 common/built-in.o
 .rodata.console_announce_r.str1.1
                0x0000000000000000        0x7 common/built-in.o
 .rodata.stdio_print_current_devices.str1.1
                0x0000000000000000       0x74 common/built-in.o
 .rodata.rEALLOc.str1.1
                0x0000000000000000       0x25 common/built-in.o
 .rodata.boot_get_ramdisk.str1.1
                0x0000000000000000      0x10d common/built-in.o
 .rodata.boot_ramdisk_high.str1.1
                0x0000000000000000       0x54 common/built-in.o
 .rodata.env_get_bootm_low.str1.1
                0x0000000000000000        0xa common/built-in.o
 .rodata.env_get_bootm_mapsize.str1.1
                0x0000000000000000        0xe common/built-in.o
 .rodata.env_get_bootm_size.str1.1
                0x0000000000000000        0xb common/built-in.o
 .rodata.genimg_get_arch_id.str1.1
                0x0000000000000000        0x4 common/built-in.o
 .rodata.genimg_get_arch_name.str1.1
                0x0000000000000000       0x15 common/built-in.o
 .rodata.genimg_get_comp_id.str1.1
                0x0000000000000000        0xc common/built-in.o
 .rodata.genimg_get_comp_name.str1.1
                0x0000000000000000       0x14 common/built-in.o
 .rodata.genimg_get_os_id.str1.1
                0x0000000000000000        0x3 common/built-in.o
 .rodata.genimg_get_os_name.str1.1
                0x0000000000000000        0xb common/built-in.o
 .rodata.genimg_get_short_name.str1.1
                0x0000000000000000        0x8 common/built-in.o
 .rodata.genimg_get_type_id.str1.1
                0x0000000000000000        0x6 common/built-in.o
 .rodata.genimg_get_type_name.str1.1
                0x0000000000000000        0xe common/built-in.o
 .rodata.genimg_print_size.str1.1
                0x0000000000000000        0xe common/built-in.o
 .rodata.image_print_contents.str1.1
                0x0000000000000000       0xd4 common/built-in.o
 .rodata.table_info
                0x0000000000000000       0x30 common/built-in.o
 .rodata.uimage_arch
                0x0000000000000000      0x144 common/built-in.o
 .rodata.uimage_comp
                0x0000000000000000       0x54 common/built-in.o
 .rodata.uimage_os
                0x0000000000000000       0x90 common/built-in.o
 .rodata.uimage_type
                0x0000000000000000      0x198 common/built-in.o
 .rodata.unknown_str.8893
                0x0000000000000000        0x9 common/built-in.o
 .rodata.android_image_check_header.str1.1
                0x0000000000000000        0x9 common/built-in.o
 .rodata.android_image_get_kernel.str1.1
                0x0000000000000000       0x96 common/built-in.o
 .rodata.android_image_get_ramdisk.str1.1
                0x0000000000000000       0x27 common/built-in.o
 .rodata.android_image_get_second.str1.1
                0x0000000000000000       0x19 common/built-in.o
 .rodata.boot_fdt_add_mem_rsv_regions.str1.1
                0x0000000000000000       0x35 common/built-in.o
 .rodata.boot_get_fdt.str1.1
                0x0000000000000000      0x1d0 common/built-in.o
 .rodata.boot_relocate_fdt.str1.1
                0x0000000000000000       0xd3 common/built-in.o
 .rodata.fdt_error.str1.1
                0x0000000000000000       0x2d common/built-in.o
 .rodata.image_setup_libfdt.str1.1
                0x0000000000000000       0x8f common/built-in.o
 .rodata.stdio_add_devices.str1.1
                0x0000000000000000        0x7 common/built-in.o
 .rodata.do_run.str1.1
                0x0000000000000000       0x1c common/built-in.o
 .rodata.run_usb_dnl_gadget.str1.1
                0x0000000000000000       0x4a common/built-in.o
 .rodata.CSWTCH.70
                0x0000000000000000       0x16 common/built-in.o
 .rodata._do_help.str1.1
                0x0000000000000000       0x5f common/built-in.o
 .rodata.cmd_auto_complete.str1.1
                0x0000000000000000       0x1c common/built-in.o
 .rodata.cmd_process.str1.1
                0x0000000000000000       0x3f common/built-in.o
 .rodata.cmd_process_error.str1.1
                0x0000000000000000       0x1f common/built-in.o
 .rodata.cmd_usage.str1.1
                0x0000000000000000       0x36 common/built-in.o
 .rodata.var_complete.str1.1
                0x0000000000000000        0x1 common/built-in.o
 .data          0x0000000000000000        0x0 common/built-in.o
 .data.of_busses
                0x0000000000000000       0x18 common/built-in.o
 .data.av_      0x0000000000000000      0x408 common/built-in.o
 .data.sbrk_base
                0x0000000000000000        0x4 common/built-in.o
 .data.trim_threshold
                0x0000000000000000        0x4 common/built-in.o
 .data.load_addr
                0x0000000000000000        0x4 common/built-in.o
 .data.stdio_names
                0x0000000000000000        0xc common/built-in.o
 .bss           0x0000000000000000        0x0 common/built-in.o
 .bss.ctrlc_disabled
                0x0000000000000000        0x4 common/built-in.o
 .bss.ctrlc_was_pressed
                0x0000000000000000        0x4 common/built-in.o
 .bss.current_mallinfo
                0x0000000000000000       0x28 common/built-in.o
 .bss.max_sbrked_mem
                0x0000000000000000        0x4 common/built-in.o
 .bss.max_total_mem
                0x0000000000000000        0x4 common/built-in.o
 .bss.top_pad   0x0000000000000000        0x4 common/built-in.o
 .bss.msg.8894  0x0000000000000000       0x1e common/built-in.o
 .bss.save_addr
                0x0000000000000000        0x4 common/built-in.o
 .bss.save_size
                0x0000000000000000        0x4 common/built-in.o
 .bss.andr_tmp_str
                0x0000000000000000      0x201 common/built-in.o
 .bss.devs      0x0000000000000000       0x4c common/built-in.o
 .bss.tmp_buf   0x0000000000000000      0x401 common/built-in.o
 .bss.tmp_buf.7224
                0x0000000000000000      0x200 common/built-in.o
 .text          0x0000000000000000        0x0 cmd/built-in.o
 .text._do_env_set.isra.0.constprop.3
                0x0000000000000000      0x104 cmd/built-in.o
 .text.get_env_id
                0x0000000000000000        0xc cmd/built-in.o
 .text.env_set  0x0000000000000000       0x38 cmd/built-in.o
 .text.env_set_ulong
                0x0000000000000000       0x16 cmd/built-in.o
 .text.env_set_hex
                0x0000000000000000       0x20 cmd/built-in.o
 .text.eth_parse_enetaddr
                0x0000000000000000       0x30 cmd/built-in.o
 .text.env_get_hex
                0x0000000000000000       0x22 cmd/built-in.o
 .text.eth_env_get_enetaddr
                0x0000000000000000       0x34 cmd/built-in.o
 .text.eth_env_set_enetaddr
                0x0000000000000000       0x30 cmd/built-in.o
 .text.env_get_ulong
                0x0000000000000000       0x1c cmd/built-in.o
 .rodata._do_env_set.isra.0.constprop.3.str1.1
                0x0000000000000000       0x7c cmd/built-in.o
 .rodata.env_set.str1.1
                0x0000000000000000        0x7 cmd/built-in.o
 .rodata.env_set_hex.str1.1
                0x0000000000000000        0x4 cmd/built-in.o
 .rodata.eth_env_set_enetaddr.str1.1
                0x0000000000000000        0x4 cmd/built-in.o
 .data          0x0000000000000000        0x0 cmd/built-in.o
 .data.env_id   0x0000000000000000        0x4 cmd/built-in.o
 .bss           0x0000000000000000        0x0 cmd/built-in.o
 .text          0x0000000000000000        0x0 env/built-in.o
 .text.set_default_vars
                0x0000000000000000       0x28 env/built-in.o
 .text.env_export
                0x0000000000000000       0x68 env/built-in.o
 .text.env_relocate
                0x0000000000000000        0xe env/built-in.o
 .text.env_save
                0x0000000000000000       0x60 env/built-in.o
 .text.env_flags_parse_varaccess_from_binflags
                0x0000000000000000       0x30 env/built-in.o
 .rodata.env_export.str1.1
                0x0000000000000000       0x27 env/built-in.o
 .rodata.env_save.str1.1
                0x0000000000000000       0x1d env/built-in.o
 .rodata.env_flags_parse_varaccess_from_binflags.str1.1
                0x0000000000000000       0x2c env/built-in.o
 .data          0x0000000000000000        0x0 env/built-in.o
 .bss           0x0000000000000000        0x0 env/built-in.o
 .text          0x0000000000000000        0x0 lib/built-in.o
 .text.sha1_process
                0x0000000000000000      0xf0c lib/built-in.o
 .text.sha1_update.part.0
                0x0000000000000000       0x82 lib/built-in.o
 .text.sha1_starts
                0x0000000000000000       0x34 lib/built-in.o
 .text.sha1_update
                0x0000000000000000        0x8 lib/built-in.o
 .text.sha1_finish
                0x0000000000000000       0xc4 lib/built-in.o
 .text.sha1_csum
                0x0000000000000000       0x24 lib/built-in.o
 .text.sha1_csum_wd
                0x0000000000000000       0x40 lib/built-in.o
 .text.sha1_hmac
                0x0000000000000000       0xb6 lib/built-in.o
 .text.sha1_self_test
                0x0000000000000000        0x4 lib/built-in.o
 .text.sha256_process
                0x0000000000000000     0x1c74 lib/built-in.o
 .text.sha256_update.part.0
                0x0000000000000000       0x82 lib/built-in.o
 .text.sha256_starts
                0x0000000000000000       0x50 lib/built-in.o
 .text.sha256_update
                0x0000000000000000        0x8 lib/built-in.o
 .text.sha256_finish
                0x0000000000000000      0x100 lib/built-in.o
 .text.sha256_csum_wd
                0x0000000000000000       0x40 lib/built-in.o
 .text.fdt_first_subnode
                0x0000000000000000       0x28 lib/built-in.o
 .text.fdt_next_subnode
                0x0000000000000000       0x2e lib/built-in.o
 .text.fdt_move
                0x0000000000000000       0x2a lib/built-in.o
 .text.fdt_setprop_inplace_namelen_partial
                0x0000000000000000       0x32 lib/built-in.o
 .text.fdt_setprop_inplace
                0x0000000000000000       0x4a lib/built-in.o
 .text.fdt_nop_property
                0x0000000000000000       0x2a lib/built-in.o
 .text._fdt_node_end_offset
                0x0000000000000000       0x28 lib/built-in.o
 .text.fdt_nop_node
                0x0000000000000000       0x30 lib/built-in.o
 .text._fdt_sw_check_header
                0x0000000000000000       0x14 lib/built-in.o
 .text._fdt_grab_space
                0x0000000000000000       0x30 lib/built-in.o
 .text.fdt_create
                0x0000000000000000       0x40 lib/built-in.o
 .text.fdt_resize
                0x0000000000000000       0x78 lib/built-in.o
 .text.fdt_add_reservemap_entry
                0x0000000000000000       0x56 lib/built-in.o
 .text.fdt_finish_reservemap
                0x0000000000000000       0x14 lib/built-in.o
 .text.fdt_begin_node
                0x0000000000000000       0x42 lib/built-in.o
 .text.fdt_end_node
                0x0000000000000000       0x26 lib/built-in.o
 .text.fdt_property_placeholder
                0x0000000000000000       0x9e lib/built-in.o
 .text.fdt_property
                0x0000000000000000       0x22 lib/built-in.o
 .text.fdt_finish
                0x0000000000000000       0x94 lib/built-in.o
 .text._fdt_packblocks
                0x0000000000000000       0x5c lib/built-in.o
 .text.fdt_set_name
                0x0000000000000000       0x5a lib/built-in.o
 .text.fdt_appendprop
                0x0000000000000000       0x84 lib/built-in.o
 .text.fdt_delprop
                0x0000000000000000       0x3e lib/built-in.o
 .text.fdt_del_node
                0x0000000000000000       0x30 lib/built-in.o
 .text.fdt_open_into
                0x0000000000000000       0xec lib/built-in.o
 .text.fdt_pack
                0x0000000000000000       0x34 lib/built-in.o
 .text.fdt_create_empty_tree
                0x0000000000000000       0x44 lib/built-in.o
 .text.overlay_phandle_add_offset
                0x0000000000000000       0x4e lib/built-in.o
 .text.overlay_adjust_node_phandles
                0x0000000000000000       0x5c lib/built-in.o
 .text.overlay_update_local_node_references
                0x0000000000000000       0xfa lib/built-in.o
 .text.overlay_get_target
                0x0000000000000000       0x7c lib/built-in.o
 .text.overlay_apply_node
                0x0000000000000000       0xae lib/built-in.o
 .text.fdt_overlay_apply
                0x0000000000000000      0x40c lib/built-in.o
 .text.fdt_path_next_separator
                0x0000000000000000       0x2c lib/built-in.o
 .text.fdt_getprop_by_offset
                0x0000000000000000       0x24 lib/built-in.o
 .text.fdt_get_phandle
                0x0000000000000000       0x40 lib/built-in.o
 .text.fdt_get_max_phandle
                0x0000000000000000       0x42 lib/built-in.o
 .text.fdt_get_alias_namelen
                0x0000000000000000       0x2c lib/built-in.o
 .text.fdt_path_offset_namelen
                0x0000000000000000       0x8c lib/built-in.o
 .text.fdt_path_offset
                0x0000000000000000       0x1a lib/built-in.o
 .text.fdt_get_alias
                0x0000000000000000       0x1a lib/built-in.o
 .text.fdt_get_path
                0x0000000000000000       0xbc lib/built-in.o
 .text.fdt_supernode_atdepth_offset
                0x0000000000000000       0x72 lib/built-in.o
 .text.fdt_node_depth
                0x0000000000000000       0x1e lib/built-in.o
 .text.fdt_parent_offset
                0x0000000000000000       0x20 lib/built-in.o
 .text.fdt_node_offset_by_prop_value
                0x0000000000000000       0x56 lib/built-in.o
 .text.fdt_node_offset_by_phandle
                0x0000000000000000       0x42 lib/built-in.o
 .text.fdt_stringlist_contains
                0x0000000000000000       0x46 lib/built-in.o
 .text.fdt_stringlist_count
                0x0000000000000000       0x38 lib/built-in.o
 .text.fdt_stringlist_search
                0x0000000000000000       0x66 lib/built-in.o
 .text.fdt_stringlist_get
                0x0000000000000000       0x60 lib/built-in.o
 .text.fdt_node_check_compatible
                0x0000000000000000       0x28 lib/built-in.o
 .text.fdt_node_offset_by_compatible
                0x0000000000000000       0x40 lib/built-in.o
 .text.fdt_add_region
                0x0000000000000000       0x5a lib/built-in.o
 .text.fdt_find_regions
                0x0000000000000000      0x236 lib/built-in.o
 .text.fdt_add_alias_regions
                0x0000000000000000      0x11c lib/built-in.o
 .text.fdt_next_region
                0x0000000000000000      0x336 lib/built-in.o
 .text.fdt_first_region
                0x0000000000000000       0x3a lib/built-in.o
 .text.hmatch_r
                0x0000000000000000       0x5c lib/built-in.o
 .text.hwalk_r  0x0000000000000000       0x30 lib/built-in.o
 .text.display_options_get_banner_priv
                0x0000000000000000       0x60 lib/built-in.o
 .text.display_options_get_banner
                0x0000000000000000        0xa lib/built-in.o
 .text.display_options
                0x0000000000000000       0x24 lib/built-in.o
 .text.print_freq
                0x0000000000000000      0x124 lib/built-in.o
 .text.print_size
                0x0000000000000000      0x11c lib/built-in.o
 .text.print_buffer
                0x0000000000000000      0x118 lib/built-in.o
 .text.crc32_wd
                0x0000000000000000       0x32 lib/built-in.o
 .text.crc32_wd_buf
                0x0000000000000000       0x22 lib/built-in.o
 .text.div_s64_rem
                0x0000000000000000       0x90 lib/built-in.o
 .text.div64_u64_rem
                0x0000000000000000      0x122 lib/built-in.o
 .text.div64_u64
                0x0000000000000000      0x104 lib/built-in.o
 .text.div64_s64
                0x0000000000000000       0x30 lib/built-in.o
 .text.iter_div_u64_rem
                0x0000000000000000       0x24 lib/built-in.o
 .text.copy_from_user
                0x0000000000000000        0xa lib/built-in.o
 .text.get_mem  0x0000000000000000       0x10 lib/built-in.o
 .text.kmem_cache_alloc
                0x0000000000000000        0x8 lib/built-in.o
 .text.membuff_purge
                0x0000000000000000        0x8 lib/built-in.o
 .text.membuff_putraw
                0x0000000000000000       0x6a lib/built-in.o
 .text.membuff_putbyte
                0x0000000000000000       0x1c lib/built-in.o
 .text.membuff_getraw
                0x0000000000000000       0x54 lib/built-in.o
 .text.membuff_getbyte
                0x0000000000000000       0x24 lib/built-in.o
 .text.membuff_peekbyte
                0x0000000000000000       0x22 lib/built-in.o
 .text.membuff_get
                0x0000000000000000       0x4c lib/built-in.o
 .text.membuff_put
                0x0000000000000000       0x3e lib/built-in.o
 .text.membuff_isempty
                0x0000000000000000        0xc lib/built-in.o
 .text.membuff_avail
                0x0000000000000000       0x34 lib/built-in.o
 .text.membuff_size
                0x0000000000000000        0x8 lib/built-in.o
 .text.membuff_makecontig
                0x0000000000000000       0x44 lib/built-in.o
 .text.membuff_free
                0x0000000000000000       0x1a lib/built-in.o
 .text.membuff_readline
                0x0000000000000000       0x6c lib/built-in.o
 .text.membuff_extend_by
                0x0000000000000000       0x76 lib/built-in.o
 .text.membuff_init
                0x0000000000000000        0xc lib/built-in.o
 .text.membuff_new
                0x0000000000000000       0x22 lib/built-in.o
 .text.membuff_uninit
                0x0000000000000000        0xc lib/built-in.o
 .text.membuff_dispose
                0x0000000000000000        0xc lib/built-in.o
 .text.strcasecmp
                0x0000000000000000        0x8 lib/built-in.o
 .text.strncat  0x0000000000000000       0x28 lib/built-in.o
 .text.strchrnul
                0x0000000000000000       0x14 lib/built-in.o
 .text.strrchr  0x0000000000000000       0x20 lib/built-in.o
 .text.strcspn  0x0000000000000000       0x22 lib/built-in.o
 .text.strspn   0x0000000000000000       0x20 lib/built-in.o
 .text.strpbrk  0x0000000000000000       0x22 lib/built-in.o
 .text.strtok   0x0000000000000000       0x40 lib/built-in.o
 .text.strsep   0x0000000000000000       0x1e lib/built-in.o
 .text.strswab  0x0000000000000000       0x26 lib/built-in.o
 .text.memscan  0x0000000000000000       0x16 lib/built-in.o
 .text.strstr   0x0000000000000000       0x40 lib/built-in.o
 .text.memchr_inv
                0x0000000000000000       0x96 lib/built-in.o
 .text.table_compute_checksum
                0x0000000000000000       0x1a lib/built-in.o
 .text.tick_to_time
                0x0000000000000000       0x48 lib/built-in.o
 .text.get_ticks
                0x0000000000000000       0x26 lib/built-in.o
 .text.timer_init
                0x0000000000000000        0x4 lib/built-in.o
 .text.get_timer
                0x0000000000000000       0x10 lib/built-in.o
 .text.timer_get_us
                0x0000000000000000       0x1c lib/built-in.o
 .text.__udelay
                0x0000000000000000       0xa0 lib/built-in.o
 .text.uuid_str_valid
                0x0000000000000000       0x50 lib/built-in.o
 .text.uuid_str_to_bin
                0x0000000000000000      0x12c lib/built-in.o
 .text.gen_rand_uuid
                0x0000000000000000       0x56 lib/built-in.o
 .text.gen_rand_uuid_str
                0x0000000000000000       0x1c lib/built-in.o
 .text.rand_r   0x0000000000000000       0x14 lib/built-in.o
 .text.rand     0x0000000000000000        0xc lib/built-in.o
 .text.srand    0x0000000000000000        0xc lib/built-in.o
 .text.__assert_fail
                0x0000000000000000       0x10 lib/built-in.o
 .text.strict_strtoul
                0x0000000000000000       0x42 lib/built-in.o
 .text.simple_strtol
                0x0000000000000000       0x1a lib/built-in.o
 .text.ustrtoul
                0x0000000000000000       0x3c lib/built-in.o
 .text.simple_strtoull
                0x0000000000000000       0x74 lib/built-in.o
 .text.ustrtoull
                0x0000000000000000       0x4e lib/built-in.o
 .text.trailing_strtoln
                0x0000000000000000       0x48 lib/built-in.o
 .text.trailing_strtol
                0x0000000000000000        0x6 lib/built-in.o
 .rodata.sha1_der_prefix
                0x0000000000000000        0xf lib/built-in.o
 .rodata.sha1_padding
                0x0000000000000000       0x40 lib/built-in.o
 .rodata.sha256_der_prefix
                0x0000000000000000       0x13 lib/built-in.o
 .rodata.fdt_create_empty_tree.str1.1
                0x0000000000000000        0x1 lib/built-in.o
 .rodata.fdt_overlay_apply.str1.1
                0x0000000000000000       0x51 lib/built-in.o
 .rodata.overlay_adjust_node_phandles.str1.1
                0x0000000000000000       0x16 lib/built-in.o
 .rodata.overlay_get_target.str1.1
                0x0000000000000000       0x13 lib/built-in.o
 .rodata.fdt_get_alias_namelen.str1.1
                0x0000000000000000        0x9 lib/built-in.o
 .rodata.fdt_get_phandle.str1.1
                0x0000000000000000       0x16 lib/built-in.o
 .rodata.fdt_node_check_compatible.str1.1
                0x0000000000000000        0xb lib/built-in.o
 .rodata.fdt_add_alias_regions.str1.1
                0x0000000000000000        0x8 lib/built-in.o
 .rodata.display_options.str1.1
                0x0000000000000000        0x3 lib/built-in.o
 .rodata.display_options_get_banner_priv.str1.1
                0x0000000000000000       0x15 lib/built-in.o
 .rodata.names.7361
                0x0000000000000000        0x3 lib/built-in.o
 .rodata.names.7395
                0x0000000000000000        0x6 lib/built-in.o
 .rodata.print_buffer.str1.1
                0x0000000000000000       0x17 lib/built-in.o
 .rodata.print_freq.str1.1
                0x0000000000000000       0x1b lib/built-in.o
 .rodata.print_size.str1.1
                0x0000000000000000       0x15 lib/built-in.o
 .rodata.__assert_fail.str1.1
                0x0000000000000000       0x22 lib/built-in.o
 .data          0x0000000000000000        0x0 lib/built-in.o
 .data.sha256_padding
                0x0000000000000000       0x40 lib/built-in.o
 .data.cur      0x0000000000000000        0x4 lib/built-in.o
 .data.current  0x0000000000000000        0x4 lib/built-in.o
 .data.y        0x0000000000000000        0x4 lib/built-in.o
 .bss           0x0000000000000000        0x0 lib/built-in.o
 .bss.___strtok
                0x0000000000000000        0x4 lib/built-in.o
 .text          0x0000000000000000        0x0 disk/built-in.o
 .text.blk_get_dev
                0x0000000000000000       0x1c disk/built-in.o
 .text.dev_print
                0x0000000000000000      0x174 disk/built-in.o
 .text.part_print
                0x0000000000000000       0xac disk/built-in.o
 .text.part_get_info_by_name_type
                0x0000000000000000       0x48 disk/built-in.o
 .text.part_get_info_by_name
                0x0000000000000000        0x8 disk/built-in.o
 .text.print_partition_extended
                0x0000000000000000      0x198 disk/built-in.o
 .text.part_print_dos
                0x0000000000000000       0x20 disk/built-in.o
 .text.is_valid_dos_buf
                0x0000000000000000       0x10 disk/built-in.o
 .text.write_mbr_partition
                0x0000000000000000       0x44 disk/built-in.o
 .text.get_disk_guid
                0x0000000000000000       0xa4 disk/built-in.o
 .text.part_print_efi
                0x0000000000000000      0x1f0 disk/built-in.o
 .text.write_gpt_table
                0x0000000000000000      0x384 disk/built-in.o
 .text.gpt_fill_pte
                0x0000000000000000      0x290 disk/built-in.o
 .text.gpt_fill_header
                0x0000000000000000      0x180 disk/built-in.o
 .text.gpt_restore
                0x0000000000000000       0xac disk/built-in.o
 .text.gpt_verify_headers
                0x0000000000000000       0x54 disk/built-in.o
 .text.gpt_verify_partitions
                0x0000000000000000      0x188 disk/built-in.o
 .text.is_valid_gpt_buf
                0x0000000000000000       0x4e disk/built-in.o
 .text.write_mbr_and_gpt_partitions
                0x0000000000000000      0x2e4 disk/built-in.o
 .rodata        0x0000000000000000       0x10 disk/built-in.o
 .rodata.dev_print.str1.1
                0x0000000000000000      0x15e disk/built-in.o
 .rodata.part_print.str1.1
                0x0000000000000000       0x90 disk/built-in.o
 .rodata.__func__.7293
                0x0000000000000000       0x14 disk/built-in.o
 .rodata.part_print_dos.str1.1
                0x0000000000000000       0x2a disk/built-in.o
 .rodata.write_mbr_partition.str1.1
                0x0000000000000000       0x2d disk/built-in.o
 .rodata.__func__.8504
                0x0000000000000000        0xe disk/built-in.o
 .rodata.__func__.8514
                0x0000000000000000        0xf disk/built-in.o
 .rodata.__func__.8537
                0x0000000000000000       0x13 disk/built-in.o
 .rodata.__func__.8600
                0x0000000000000000        0xc disk/built-in.o
 .rodata.__func__.8618
                0x0000000000000000       0x13 disk/built-in.o
 .rodata.__func__.8651
                0x0000000000000000       0x1d disk/built-in.o
 .rodata.gpt_fill_pte.str1.1
                0x0000000000000000       0x5b disk/built-in.o
 .rodata.gpt_verify_partitions.str1.1
                0x0000000000000000       0xa3 disk/built-in.o
 .rodata.part_print_efi.str1.1
                0x0000000000000000       0x8d disk/built-in.o
 .rodata.write_gpt_table.str1.1
                0x0000000000000000       0x55 disk/built-in.o
 .rodata.write_mbr_and_gpt_partitions.str1.1
                0x0000000000000000       0x7c disk/built-in.o
 .data          0x0000000000000000        0x0 disk/built-in.o
 .bss           0x0000000000000000        0x0 disk/built-in.o
 .text          0x0000000000000000        0x0 drivers/built-in.o
 .text._device_find_global_by_of_offset
                0x0000000000000000       0x2e drivers/built-in.o
 .text.device_bind_with_driver_data
                0x0000000000000000       0x16 drivers/built-in.o
 .text.device_bind
                0x0000000000000000       0x16 drivers/built-in.o
 .text.dev_get_parent_platdata
                0x0000000000000000        0x6 drivers/built-in.o
 .text.dev_get_uclass_platdata
                0x0000000000000000        0x6 drivers/built-in.o
 .text.dev_get_parent_priv
                0x0000000000000000        0x6 drivers/built-in.o
 .text.device_get_child
                0x0000000000000000       0x30 drivers/built-in.o
 .text.device_find_child_by_seq
                0x0000000000000000       0x3a drivers/built-in.o
 .text.device_get_child_by_seq
                0x0000000000000000       0x32 drivers/built-in.o
 .text.device_find_child_by_of_offset
                0x0000000000000000       0x2e drivers/built-in.o
 .text.device_get_child_by_of_offset
                0x0000000000000000       0x20 drivers/built-in.o
 .text.device_get_global_by_of_offset
                0x0000000000000000       0x24 drivers/built-in.o
 .text.device_find_first_child
                0x0000000000000000       0x14 drivers/built-in.o
 .text.device_find_next_child
                0x0000000000000000       0x16 drivers/built-in.o
 .text.dev_get_parent
                0x0000000000000000        0x4 drivers/built-in.o
 .text.dev_get_driver_data
                0x0000000000000000        0x4 drivers/built-in.o
 .text.dev_get_driver_ops
                0x0000000000000000        0x8 drivers/built-in.o
 .text.device_get_uclass_id
                0x0000000000000000        0x8 drivers/built-in.o
 .text.dev_get_uclass_name
                0x0000000000000000        0xa drivers/built-in.o
 .text.device_has_children
                0x0000000000000000        0xe drivers/built-in.o
 .text.device_has_active_children
                0x0000000000000000       0x24 drivers/built-in.o
 .text.device_is_last_sibling
                0x0000000000000000       0x14 drivers/built-in.o
 .text.device_set_name_alloced
                0x0000000000000000        0xa drivers/built-in.o
 .text.device_set_name
                0x0000000000000000       0x20 drivers/built-in.o
 .text.device_is_compatible
                0x0000000000000000       0x18 drivers/built-in.o
 .text.of_machine_is_compatible
                0x0000000000000000       0x18 drivers/built-in.o
 .text.devfdt_get_addr_index
                0x0000000000000000        0x6 drivers/built-in.o
 .text.devfdt_get_addr_size_index
                0x0000000000000000        0x6 drivers/built-in.o
 .text.devfdt_get_addr_name
                0x0000000000000000        0x6 drivers/built-in.o
 .text.devfdt_get_addr_ptr
                0x0000000000000000        0x6 drivers/built-in.o
 .text.devfdt_map_physmem
                0x0000000000000000        0x4 drivers/built-in.o
 .text.device_bind_driver_to_node
                0x0000000000000000       0x2c drivers/built-in.o
 .text.device_bind_driver
                0x0000000000000000       0x12 drivers/built-in.o
 .text.dm_root  0x0000000000000000        0xc drivers/built-in.o
 .text.dm_get_translation_offset
                0x0000000000000000        0xe drivers/built-in.o
 .text.dm_set_translation_offset
                0x0000000000000000       0x10 drivers/built-in.o
 .text.dm_uninit
                0x0000000000000000        0xe drivers/built-in.o
 .text.dm_extended_scan_fdt
                0x0000000000000000       0x28 drivers/built-in.o
 .text.uclass_destroy
                0x0000000000000000       0x28 drivers/built-in.o
 .text.uclass_get_name
                0x0000000000000000       0x1a drivers/built-in.o
 .text.uclass_get_by_name
                0x0000000000000000       0x2a drivers/built-in.o
 .text.uclass_find_device_by_name
                0x0000000000000000       0x50 drivers/built-in.o
 .text.uclass_find_device_by_of_offset
                0x0000000000000000       0x42 drivers/built-in.o
 .text.uclass_find_device_by_ofnode
                0x0000000000000000       0x42 drivers/built-in.o
 .text.uclass_get_device_by_driver
                0x0000000000000000       0x40 drivers/built-in.o
 .text.uclass_get_device_by_name
                0x0000000000000000       0x1c drivers/built-in.o
 .text.uclass_get_device_by_of_offset
                0x0000000000000000       0x1c drivers/built-in.o
 .text.uclass_get_device_by_ofnode
                0x0000000000000000       0x1c drivers/built-in.o
 .text.uclass_first_device_err
                0x0000000000000000       0x16 drivers/built-in.o
 .text.uclass_first_device_check
                0x0000000000000000       0x1e drivers/built-in.o
 .text.uclass_next_device_check
                0x0000000000000000       0x1a drivers/built-in.o
 .text.list_count_items
                0x0000000000000000       0x14 drivers/built-in.o
 .text.dm_fdt_pre_reloc
                0x0000000000000000       0x30 drivers/built-in.o
 .text.show_devices
                0x0000000000000000       0xa8 drivers/built-in.o
 .text.dm_dump_all
                0x0000000000000000       0x30 drivers/built-in.o
 .text.dm_dump_uclass
                0x0000000000000000       0x98 drivers/built-in.o
 .text.i2c_init_board
                0x0000000000000000        0x2 drivers/built-in.o
 .text.i2c_early_init_f
                0x0000000000000000        0x2 drivers/built-in.o
 .text.i2c_get_bus_num
                0x0000000000000000        0x6 drivers/built-in.o
 .text.i2c_init_all
                0x0000000000000000       0x10 drivers/built-in.o
 .text.i2c_set_bus_speed
                0x0000000000000000       0x44 drivers/built-in.o
 .text.i2c_get_bus_speed
                0x0000000000000000        0xe drivers/built-in.o
 .text.i2c_reg_read
                0x0000000000000000       0x18 drivers/built-in.o
 .text.i2c_reg_write
                0x0000000000000000       0x16 drivers/built-in.o
 .text.board_mmc_getwp
                0x0000000000000000        0x6 drivers/built-in.o
 .text.mmc_getwp
                0x0000000000000000       0x20 drivers/built-in.o
 .text.mmc_set_dsr
                0x0000000000000000        0x6 drivers/built-in.o
 .text.cpu_mmc_init
                0x0000000000000000        0x6 drivers/built-in.o
 .text.mmc_set_preinit
                0x0000000000000000        0x6 drivers/built-in.o
 .text.get_mmc_num
                0x0000000000000000        0xc drivers/built-in.o
 .text.print_mmc_devices
                0x0000000000000000       0x84 drivers/built-in.o
 .text.mmc_destroy
                0x0000000000000000        0x2 drivers/built-in.o
 .text.serial_initialize
                0x0000000000000000        0x4 drivers/built-in.o
 .text.serial_setbrg
                0x0000000000000000       0x1e drivers/built-in.o
 .text.serial_stdio_init
                0x0000000000000000        0x2 drivers/built-in.o
 .text.ns16550_calc_divisor
                0x0000000000000000       0x10 drivers/built-in.o
 .text.NS16550_reinit
                0x0000000000000000       0x38 drivers/built-in.o
 .text.NS16550_putc
                0x0000000000000000       0x2a drivers/built-in.o
 .text.NS16550_getc
                0x0000000000000000       0x22 drivers/built-in.o
 .text.NS16550_tstc
                0x0000000000000000       0x10 drivers/built-in.o
 .text.get_function
                0x0000000000000000       0x5e drivers/built-in.o
 .text.dm_gpio_lookup_name
                0x0000000000000000       0xa0 drivers/built-in.o
 .text.gpio_lookup_name
                0x0000000000000000       0x3c drivers/built-in.o
 .text.gpio_xlate_offs_flags
                0x0000000000000000       0x24 drivers/built-in.o
 .text.gpio_requestf
                0x0000000000000000       0x12 drivers/built-in.o
 .text._dm_gpio_free
                0x0000000000000000       0x38 drivers/built-in.o
 .text.gpio_free
                0x0000000000000000       0x18 drivers/built-in.o
 .text.dm_gpio_set_value
                0x0000000000000000       0x34 drivers/built-in.o
 .text.dm_gpio_get_open_drain
                0x0000000000000000       0x2c drivers/built-in.o
 .text.dm_gpio_set_open_drain
                0x0000000000000000       0x2c drivers/built-in.o
 .text.dm_gpio_set_dir_flags
                0x0000000000000000       0x58 drivers/built-in.o
 .text.gpio_request_tail.isra.2
                0x0000000000000000       0x74 drivers/built-in.o
 .text.dm_gpio_set_dir
                0x0000000000000000        0x6 drivers/built-in.o
 .text.gpio_set_value
                0x0000000000000000       0x18 drivers/built-in.o
 .text.gpio_get_bank_info
                0x0000000000000000       0x10 drivers/built-in.o
 .text.gpio_get_function
                0x0000000000000000        0x8 drivers/built-in.o
 .text.gpio_get_raw_function
                0x0000000000000000        0x8 drivers/built-in.o
 .text.gpio_get_status
                0x0000000000000000       0xb4 drivers/built-in.o
 .text.gpio_claim_vector
                0x0000000000000000       0x50 drivers/built-in.o
 .text.gpio_get_values_as_int
                0x0000000000000000       0x2c drivers/built-in.o
 .text.dm_gpio_get_values_as_int
                0x0000000000000000       0x32 drivers/built-in.o
 .text.gpio_request_by_name_nodev
                0x0000000000000000       0x38 drivers/built-in.o
 .text.gpio_request_by_name
                0x0000000000000000       0x3c drivers/built-in.o
 .text.gpio_get_list_count
                0x0000000000000000       0x28 drivers/built-in.o
 .text.dm_gpio_free
                0x0000000000000000        0xa drivers/built-in.o
 .text.gpio_free_list
                0x0000000000000000       0x28 drivers/built-in.o
 .text.gpio_free_list_nodev
                0x0000000000000000        0xa drivers/built-in.o
 .text.gpio_request_list_by_name_nodev
                0x0000000000000000       0x68 drivers/built-in.o
 .text.gpio_request_list_by_name
                0x0000000000000000        0x6 drivers/built-in.o
 .text.gpio_get_number
                0x0000000000000000       0x14 drivers/built-in.o
 .text.gpio_is_valid
                0x0000000000000000        0xa drivers/built-in.o
 .text.musb_gadget_cleanup
                0x0000000000000000        0x2 drivers/built-in.o
 .text.musb_gadget_start
                0x0000000000000000       0x2a drivers/built-in.o
 .text.musb_g_resume
                0x0000000000000000        0x2 drivers/built-in.o
 .text.musb_g_suspend
                0x0000000000000000        0x2 drivers/built-in.o
 .text.musb_g_wakeup
                0x0000000000000000        0x2 drivers/built-in.o
 .text.musb_g_disconnect
                0x0000000000000000       0x38 drivers/built-in.o
 .text.musb_g_reset
                0x0000000000000000       0x72 drivers/built-in.o
 .text.musb_start
                0x0000000000000000       0x88 drivers/built-in.o
 .text.musb_stop
                0x0000000000000000       0x32 drivers/built-in.o
 .text.musb_host_complete_urb
                0x0000000000000000       0x16 drivers/built-in.o
 .text.construct_urb
                0x0000000000000000       0x90 drivers/built-in.o
 .text._musb_reset_root_port.isra.1
                0x0000000000000000       0x6c drivers/built-in.o
 .text.submit_urb.constprop.8
                0x0000000000000000       0x84 drivers/built-in.o
 .text.musb_lowlevel_init
                0x0000000000000000       0x74 drivers/built-in.o
 .text.usb_lowlevel_stop
                0x0000000000000000       0x24 drivers/built-in.o
 .text.submit_bulk_msg
                0x0000000000000000       0x2c drivers/built-in.o
 .text.submit_control_msg
                0x0000000000000000       0x3c drivers/built-in.o
 .text.submit_int_msg
                0x0000000000000000       0x30 drivers/built-in.o
 .text.create_int_queue
                0x0000000000000000       0x9c drivers/built-in.o
 .text.poll_int_queue
                0x0000000000000000       0x28 drivers/built-in.o
 .text.destroy_int_queue
                0x0000000000000000       0x40 drivers/built-in.o
 .text.usb_reset_root_port
                0x0000000000000000        0xc drivers/built-in.o
 .text.usb_lowlevel_init
                0x0000000000000000        0xc drivers/built-in.o
 .text.usb_gadget_handle_interrupts
                0x0000000000000000       0x24 drivers/built-in.o
 .text.usb_gadget_register_driver
                0x0000000000000000       0x78 drivers/built-in.o
 .text.usb_gadget_unregister_driver
                0x0000000000000000       0x28 drivers/built-in.o
 .text.musb_urb_enqueue
                0x0000000000000000      0x31a drivers/built-in.o
 .text.musb_urb_dequeue
                0x0000000000000000       0xce drivers/built-in.o
 .text.blk_get_if_type_name
                0x0000000000000000        0xc drivers/built-in.o
 .text.blk_list_part
                0x0000000000000000       0x52 drivers/built-in.o
 .text.blk_print_part_devnum
                0x0000000000000000       0x34 drivers/built-in.o
 .text.blk_list_devices
                0x0000000000000000       0x44 drivers/built-in.o
 .text.blk_print_device_num
                0x0000000000000000       0x38 drivers/built-in.o
 .text.blk_show_device
                0x0000000000000000       0x5c drivers/built-in.o
 .text.blk_get_devnum_by_type
                0x0000000000000000       0x20 drivers/built-in.o
 .text.blk_read_devnum
                0x0000000000000000       0x2e drivers/built-in.o
 .text.blk_write_devnum
                0x0000000000000000       0x2e drivers/built-in.o
 .rodata.dm_extended_scan_fdt.str1.1
                0x0000000000000000        0x8 drivers/built-in.o
 .rodata.dm_fdt_pre_reloc.str1.1
                0x0000000000000000       0x22 drivers/built-in.o
 .rodata.dm_dump_all.str1.1
                0x0000000000000000       0x50 drivers/built-in.o
 .rodata.dm_dump_uclass.str1.1
                0x0000000000000000       0x34 drivers/built-in.o
 .rodata.show_devices.str1.1
                0x0000000000000000       0x36 drivers/built-in.o
 .rodata.print_mmc_devices.str1.1
                0x0000000000000000       0x1c drivers/built-in.o
 .rodata.dm_gpio_get_open_drain.str1.1
                0x0000000000000000        0xf drivers/built-in.o
 .rodata.dm_gpio_set_dir_flags.str1.1
                0x0000000000000000        0x8 drivers/built-in.o
 .rodata.dm_gpio_set_open_drain.str1.1
                0x0000000000000000        0xf drivers/built-in.o
 .rodata.dm_gpio_set_value.str1.1
                0x0000000000000000        0xa drivers/built-in.o
 .rodata.gpio_function
                0x0000000000000000       0x14 drivers/built-in.o
 .rodata.gpio_get_status.str1.1
                0x0000000000000000       0x19 drivers/built-in.o
 .rodata.gpio_request_by_name_nodev.str1.1
                0x0000000000000000        0xc drivers/built-in.o
 .rodata.gpio_request_tail.isra.2.str1.1
                0x0000000000000000        0xe drivers/built-in.o
 .rodata.create_int_queue.str1.1
                0x0000000000000000       0x5e drivers/built-in.o
 .rodata.musb_lowlevel_init.str1.1
                0x0000000000000000       0x1d drivers/built-in.o
 .rodata.submit_urb.constprop.8.str1.1
                0x0000000000000000       0x25 drivers/built-in.o
 .rodata.usb_gadget_register_driver.str1.1
                0x0000000000000000       0x5c drivers/built-in.o
 .rodata.blk_list_devices.str1.1
                0x0000000000000000        0xc drivers/built-in.o
 .rodata.blk_print_device_num.str1.1
                0x0000000000000000       0x10 drivers/built-in.o
 .rodata.blk_show_device.str1.1
                0x0000000000000000       0x1d drivers/built-in.o
 .data          0x0000000000000000        0x0 drivers/built-in.o
 .bss           0x0000000000000000        0x0 drivers/built-in.o
 .text          0x0000000000000000        0x0 fs/built-in.o
 .text.set_fatent_value
                0x0000000000000000      0x126 fs/built-in.o
 .text.find_empty_cluster
                0x0000000000000000       0x18 fs/built-in.o
 .text.set_cluster
                0x0000000000000000       0xfc fs/built-in.o
 .text.set_name
                0x0000000000000000       0xc8 fs/built-in.o
 .text.check_overflow
                0x0000000000000000       0x50 fs/built-in.o
 .text.flush_dir_table.constprop.8
                0x0000000000000000       0x8c fs/built-in.o
 .text.do_fat_write
                0x0000000000000000      0x830 fs/built-in.o
 .text.file_fat_detectfs
                0x0000000000000000       0xd4 fs/built-in.o
 .text.fat_exists
                0x0000000000000000       0x34 fs/built-in.o
 .text.fat_size
                0x0000000000000000       0x64 fs/built-in.o
 .text.fat_read_file
                0x0000000000000000       0x30 fs/built-in.o
 .text.fat_opendir
                0x0000000000000000       0x44 fs/built-in.o
 .text.fat_readdir
                0x0000000000000000       0x54 fs/built-in.o
 .text.fat_closedir
                0x0000000000000000        0x2 fs/built-in.o
 .text.fat_close
                0x0000000000000000        0x2 fs/built-in.o
 .text.file_fat_write
                0x0000000000000000       0x48 fs/built-in.o
 .text.ext4fs_ls
                0x0000000000000000       0x40 fs/built-in.o
 .text.ext4fs_exists
                0x0000000000000000       0x14 fs/built-in.o
 .text.ext4fs_size
                0x0000000000000000        0x4 fs/built-in.o
 .text.ext4fs_probe
                0x0000000000000000       0x1e fs/built-in.o
 .text.ext4_read_file
                0x0000000000000000       0x50 fs/built-in.o
 .text.ext4fs_uuid
                0x0000000000000000       0x20 fs/built-in.o
 .text.ext4fs_get_group_descriptor
                0x0000000000000000        0xa fs/built-in.o
 .text.ext4fs_sb_get_free_blocks
                0x0000000000000000       0x1c fs/built-in.o
 .text.ext4fs_sb_set_free_blocks
                0x0000000000000000        0xa fs/built-in.o
 .text.ext4fs_bg_get_free_blocks
                0x0000000000000000       0x12 fs/built-in.o
 .text.ext4fs_bg_get_block_id
                0x0000000000000000       0x1a fs/built-in.o
 .text.ext4fs_bg_get_inode_id
                0x0000000000000000       0x1a fs/built-in.o
 .text.ext4fs_div_roundup
                0x0000000000000000       0x14 fs/built-in.o
 .text.put_ext4
                0x0000000000000000      0x12c fs/built-in.o
 .text.ext4fs_set_block_bmap
                0x0000000000000000       0x6c fs/built-in.o
 .text.ext4fs_reset_block_bmap
                0x0000000000000000       0x68 fs/built-in.o
 .text.ext4fs_set_inode_bmap
                0x0000000000000000       0x4c fs/built-in.o
 .text.ext4fs_reset_inode_bmap
                0x0000000000000000       0x48 fs/built-in.o
 .text.ext4fs_checksum_update
                0x0000000000000000       0x5a fs/built-in.o
 .text.ext4fs_get_new_blk_no
                0x0000000000000000      0x2ac fs/built-in.o
 .text.ext4fs_get_new_inode_no
                0x0000000000000000      0x29c fs/built-in.o
 .text.ext4fs_allocate_blocks
                0x0000000000000000      0x398 fs/built-in.o
 .text.ext4fs_iget
                0x0000000000000000       0x1c fs/built-in.o
 .text.ext4fs_update_parent_dentry
                0x0000000000000000      0x228 fs/built-in.o
 .text.search_dir
                0x0000000000000000       0xc0 fs/built-in.o
 .text.ext4fs_get_parent_inode_num
                0x0000000000000000      0x288 fs/built-in.o
 .text.ext4fs_filename_unlink
                0x0000000000000000      0x114 fs/built-in.o
 .text.ext4fs_reinit_global
                0x0000000000000000       0x68 fs/built-in.o
 .text.ext4fs_close
                0x0000000000000000       0x34 fs/built-in.o
 .text.ext4fs_update
                0x0000000000000000       0xc0 fs/built-in.o
 .text.ext4fs_get_bgdtable
                0x0000000000000000       0x70 fs/built-in.o
 .text.ext4fs_deinit
                0x0000000000000000       0xc0 fs/built-in.o
 .text.ext4fs_init
                0x0000000000000000      0x1d4 fs/built-in.o
 .text.ext4fs_write
                0x0000000000000000      0xb84 fs/built-in.o
 .text.ext4_write_file
                0x0000000000000000       0x44 fs/built-in.o
 .text.ext4fs_dump_metadata
                0x0000000000000000       0x3c fs/built-in.o
 .text.ext4fs_free_journal
                0x0000000000000000       0x20 fs/built-in.o
 .text.ext4fs_log_gdt
                0x0000000000000000       0x84 fs/built-in.o
 .text.ext4fs_log_journal
                0x0000000000000000       0x9c fs/built-in.o
 .text.ext4fs_put_metadata
                0x0000000000000000       0x8c fs/built-in.o
 .text.print_revoke_blks
                0x0000000000000000       0x38 fs/built-in.o
 .text.ext4fs_push_revoke_blk
                0x0000000000000000       0x90 fs/built-in.o
 .text.ext4fs_free_revoke_blks
                0x0000000000000000       0x2c fs/built-in.o
 .text.check_blknr_for_revoke
                0x0000000000000000       0x3c fs/built-in.o
 .text.recover_transaction
                0x0000000000000000       0xd4 fs/built-in.o
 .text.print_jrnl_status
                0x0000000000000000       0x14 fs/built-in.o
 .text.ext4fs_check_journal_state
                0x0000000000000000      0x1d8 fs/built-in.o
 .text.ext4fs_init_journal
                0x0000000000000000      0x190 fs/built-in.o
 .text.ext4fs_update_journal
                0x0000000000000000      0x1f8 fs/built-in.o
 .text.ext2fs_crc16
                0x0000000000000000       0x24 fs/built-in.o
 .rodata.fat_read_file.str1.1
                0x0000000000000000       0x1e fs/built-in.o
 .rodata.file_fat_detectfs.str1.1
                0x0000000000000000       0x84 fs/built-in.o
 .rodata.file_fat_write.str1.1
                0x0000000000000000       0x40 fs/built-in.o
 .rodata.flush_dir_table.constprop.8.str1.1
                0x0000000000000000       0x21 fs/built-in.o
 .rodata.ext4_read_file.str1.1
                0x0000000000000000       0x19 fs/built-in.o
 .rodata.ext4fs_ls.str1.1
                0x0000000000000000       0x1f fs/built-in.o
 .rodata.__func__.8072
                0x0000000000000000       0x1c fs/built-in.o
 .rodata.ext4fs_allocate_blocks.str1.1
                0x0000000000000000       0x61 fs/built-in.o
 .rodata.ext4fs_filename_unlink.str1.1
                0x0000000000000000       0x16 fs/built-in.o
 .rodata.ext4fs_get_parent_inode_num.str1.1
                0x0000000000000000       0x40 fs/built-in.o
 .rodata.ext4fs_update_parent_dentry.str1.1
                0x0000000000000000       0x86 fs/built-in.o
 .rodata.put_ext4.str1.1
                0x0000000000000000       0x42 fs/built-in.o
 .rodata.search_dir.str1.1
                0x0000000000000000       0x1b fs/built-in.o
 .rodata.ext4_write_file.str1.1
                0x0000000000000000       0x42 fs/built-in.o
 .rodata.ext4fs_get_bgdtable.str1.1
                0x0000000000000000       0x19 fs/built-in.o
 .rodata.ext4fs_init.str1.1
                0x0000000000000000       0x33 fs/built-in.o
 .rodata.ext4fs_write.str1.1
                0x0000000000000000       0x78 fs/built-in.o
 .rodata.__func__.7659
                0x0000000000000000       0x13 fs/built-in.o
 .rodata.__func__.7668
                0x0000000000000000       0x14 fs/built-in.o
 .rodata.ext4fs_check_journal_state.str1.1
                0x0000000000000000       0x2e fs/built-in.o
 .rodata.ext4fs_log_journal.str1.1
                0x0000000000000000       0x1c fs/built-in.o
 .rodata.ext4fs_push_revoke_blk.str1.1
                0x0000000000000000       0x2e fs/built-in.o
 .rodata.ext4fs_update_journal.str1.1
                0x0000000000000000       0x19 fs/built-in.o
 .rodata.print_jrnl_status.str1.1
                0x0000000000000000       0x34 fs/built-in.o
 .rodata.print_revoke_blks.str1.1
                0x0000000000000000       0x25 fs/built-in.o
 .rodata.crc16_table
                0x0000000000000000      0x200 fs/built-in.o
 .data          0x0000000000000000        0x0 fs/built-in.o
 .data.prev_bg_bitmap_index.7995
                0x0000000000000000        0x4 fs/built-in.o
 .data.prev_inode_bitmap_index.8019
                0x0000000000000000        0x4 fs/built-in.o
 .data.prev_bg_bmap_idx.7720
                0x0000000000000000        0x4 fs/built-in.o
 .data.prev_bg_bmap_idx.7735
                0x0000000000000000        0x4 fs/built-in.o
 .data.prev_bg_bmap_idx.7757
                0x0000000000000000        0x4 fs/built-in.o
 .data.prev_bg_bmap_idx.7792
                0x0000000000000000        0x4 fs/built-in.o
 .data.first_node
                0x0000000000000000        0x4 fs/built-in.o
 .bss           0x0000000000000000        0x0 fs/built-in.o
 .bss.dir_curclust
                0x0000000000000000        0x4 fs/built-in.o
 .bss.do_fat_read_at_block
                0x0000000000000000    0x10000 fs/built-in.o
 .bss.empty_dentptr
                0x0000000000000000        0x4 fs/built-in.o
 .bss.get_dentfromdir_block
                0x0000000000000000    0x10000 fs/built-in.o
 .bss.ext4fs_symlinknest
                0x0000000000000000        0x4 fs/built-in.o
 .bss.g_parent_inode
                0x0000000000000000        0x4 fs/built-in.o
 .bss.dirty_block_ptr
                0x0000000000000000      0x190 fs/built-in.o
 .bss.gd_index  0x0000000000000000        0x4 fs/built-in.o
 .bss.gindex    0x0000000000000000        0x4 fs/built-in.o
 .bss.journal_ptr
                0x0000000000000000      0x190 fs/built-in.o
 .bss.jrnl_blk_idx
                0x0000000000000000        0x4 fs/built-in.o
 .bss.prev_node
                0x0000000000000000        0x4 fs/built-in.o
 .bss.revk_blk_list
                0x0000000000000000        0x4 fs/built-in.o
 .text          0x0000000000000000        0x0 arch/arm/lib/eabi_compat.o
 .data          0x0000000000000000        0x0 arch/arm/lib/eabi_compat.o
 .bss           0x0000000000000000        0x0 arch/arm/lib/eabi_compat.o
 .text.raise    0x0000000000000000        0x4 arch/arm/lib/eabi_compat.o
 .text.__aeabi_unwind_cpp_pr0
                0x0000000000000000        0x2 arch/arm/lib/eabi_compat.o
 .text.__aeabi_unwind_cpp_pr1
                0x0000000000000000        0x2 arch/arm/lib/eabi_compat.o
 .text.__aeabi_memcpy
                0x0000000000000000        0x4 arch/arm/lib/eabi_compat.o
 .text.__aeabi_memset
                0x0000000000000000        0xa arch/arm/lib/eabi_compat.o
 .debug_info    0x0000000000000000      0xb60 arch/arm/lib/eabi_compat.o
 .debug_abbrev  0x0000000000000000      0x247 arch/arm/lib/eabi_compat.o
 .debug_loc     0x0000000000000000       0xfd arch/arm/lib/eabi_compat.o
 .debug_aranges
                0x0000000000000000       0x38 arch/arm/lib/eabi_compat.o
 .debug_ranges  0x0000000000000000       0x28 arch/arm/lib/eabi_compat.o
 .debug_line    0x0000000000000000      0x17d arch/arm/lib/eabi_compat.o
 .debug_str     0x0000000000000000      0x938 arch/arm/lib/eabi_compat.o
 .comment       0x0000000000000000       0x31 arch/arm/lib/eabi_compat.o
 .note.GNU-stack
                0x0000000000000000        0x0 arch/arm/lib/eabi_compat.o
 .debug_frame   0x0000000000000000       0x60 arch/arm/lib/eabi_compat.o
 .ARM.attributes
                0x0000000000000000       0x2d arch/arm/lib/eabi_compat.o
 .text          0x0000000000000000        0x0 arch/arm/lib/lib.a(lib1funcs.o)
 .data          0x0000000000000000        0x0 arch/arm/lib/lib.a(lib1funcs.o)
 .bss           0x0000000000000000        0x0 arch/arm/lib/lib.a(lib1funcs.o)
 .text.__umodsi3
                0x0000000000000000       0xa0 arch/arm/lib/lib.a(lib1funcs.o)
 .text.__modsi3
                0x0000000000000000       0xb8 arch/arm/lib/lib.a(lib1funcs.o)
 .text          0x0000000000000000        0x0 arch/arm/lib/lib.a(div0.o)
 .data          0x0000000000000000        0x0 arch/arm/lib/lib.a(div0.o)
 .bss           0x0000000000000000        0x0 arch/arm/lib/lib.a(div0.o)

Memory Configuration

Name             Origin             Length             Attributes
.sram            0x00000000402f0400 0x000000000001b000
.sdram           0x0000000080a00000 0x0000000000080000
*default*        0x0000000000000000 0xffffffffffffffff

Linker script and memory map


.text           0x00000000402f0400     0xda04
                0x00000000402f0400                __start = .
 *(.vectors)
 .vectors       0x00000000402f0400       0x44 arch/arm/lib/built-in.o
                0x00000000402f0400                _start
                0x00000000402f0420                _undefined_instruction
                0x00000000402f0424                _software_interrupt
                0x00000000402f0428                _prefetch_abort
                0x00000000402f042c                _data_abort
                0x00000000402f0430                _not_used
                0x00000000402f0434                _irq
                0x00000000402f0438                _fiq
 arch/arm/cpu/armv7/start.o(.text*)
 .text          0x00000000402f0444       0xb0 arch/arm/cpu/armv7/start.o
                0x00000000402f0444                reset
                0x00000000402f0448                save_boot_params_ret
                0x00000000402f0484                c_runtime_cpu_setup
                0x00000000402f0498                cpu_init_cp15
                0x00000000402f04ec                cpu_init_crit
 *(.text*)
 .text          0x00000000402f04f4       0x60 arch/arm/mach-omap2/built-in.o
                0x00000000402f04f4                save_boot_params
                0x00000000402f0500                omap_smc1
                0x00000000402f051c                omap_smc_sec
 .text.get_dpll_core_params
                0x00000000402f0554       0x14 arch/arm/mach-omap2/built-in.o
                0x00000000402f0554                get_dpll_core_params
 .text.get_dpll_per_params
                0x00000000402f0568       0x14 arch/arm/mach-omap2/built-in.o
                0x00000000402f0568                get_dpll_per_params
 .text.setup_clocks_for_console
                0x00000000402f057c       0x7c arch/arm/mach-omap2/built-in.o
                0x00000000402f057c                setup_clocks_for_console
 .text.enable_basic_clocks
                0x00000000402f05f8       0x44 arch/arm/mach-omap2/built-in.o
                0x00000000402f05f8                enable_basic_clocks
 .text.do_setup_dpll
                0x00000000402f063c       0xe0 arch/arm/mach-omap2/built-in.o
                0x00000000402f063c                do_setup_dpll
 .text.do_enable_clocks
                0x00000000402f071c       0x64 arch/arm/mach-omap2/built-in.o
                0x00000000402f071c                do_enable_clocks
 .text.setup_early_clocks
                0x00000000402f0780       0x12 arch/arm/mach-omap2/built-in.o
                0x00000000402f0780                setup_early_clocks
 *fill*         0x00000000402f0792        0x2 
 .text.prcm_init
                0x00000000402f0794       0x5c arch/arm/mach-omap2/built-in.o
                0x00000000402f0794                prcm_init
 .text.get_sys_clk_index
                0x00000000402f07f0       0x14 arch/arm/mach-omap2/built-in.o
                0x00000000402f07f0                get_sys_clk_index
 .text.am335x_get_efuse_mpu_max_freq
                0x00000000402f0804       0x74 arch/arm/mach-omap2/built-in.o
                0x00000000402f0804                am335x_get_efuse_mpu_max_freq
 .text.am335x_get_tps65910_mpu_vdd
                0x00000000402f0878       0x34 arch/arm/mach-omap2/built-in.o
                0x00000000402f0878                am335x_get_tps65910_mpu_vdd
 .text.configure_mr
                0x00000000402f08ac       0x88 arch/arm/mach-omap2/built-in.o
 .text.config_sdram_emif4d5
                0x00000000402f0934      0x15c arch/arm/mach-omap2/built-in.o
                0x00000000402f0934                config_sdram_emif4d5
 .text.config_sdram
                0x00000000402f0a90       0x80 arch/arm/mach-omap2/built-in.o
                0x00000000402f0a90                config_sdram
 .text.set_sdram_timings
                0x00000000402f0b10       0x3c arch/arm/mach-omap2/built-in.o
                0x00000000402f0b10                set_sdram_timings
 .text.config_ddr_phy
                0x00000000402f0b4c      0x1ac arch/arm/mach-omap2/built-in.o
                0x00000000402f0b4c                config_ddr_phy
 .text.config_cmd_ctrl
                0x00000000402f0cf8       0x44 arch/arm/mach-omap2/built-in.o
                0x00000000402f0cf8                config_cmd_ctrl
 .text.config_ddr_data
                0x00000000402f0d3c       0x4c arch/arm/mach-omap2/built-in.o
                0x00000000402f0d3c                config_ddr_data
 .text.config_io_ctrl
                0x00000000402f0d88       0x34 arch/arm/mach-omap2/built-in.o
                0x00000000402f0d88                config_io_ctrl
 .text.ddr_pll_config
                0x00000000402f0dbc        0x2 arch/arm/mach-omap2/built-in.o
                0x00000000402f0dbc                ddr_pll_config
 *fill*         0x00000000402f0dbe        0x2 
 .text.config_ddr
                0x00000000402f0dc0       0xb4 arch/arm/mach-omap2/built-in.o
                0x00000000402f0dc0                config_ddr
 .text.am33xx_otg0_set_phy_power
                0x00000000402f0e74       0x20 arch/arm/mach-omap2/built-in.o
 .text.am33xx_otg1_set_phy_power
                0x00000000402f0e94       0x20 arch/arm/mach-omap2/built-in.o
 .text.dram_init_banksize
                0x00000000402f0eb4       0x18 arch/arm/mach-omap2/built-in.o
                0x00000000402f0eb4                dram_init_banksize
 .text.cpu_mmc_init
                0x00000000402f0ecc       0x28 arch/arm/mach-omap2/built-in.o
                0x00000000402f0ecc                cpu_mmc_init
 .text.arch_misc_init
                0x00000000402f0ef4       0x34 arch/arm/mach-omap2/built-in.o
                0x00000000402f0ef4                arch_misc_init
 .text.board_early_init_f
                0x00000000402f0f28        0xe arch/arm/mach-omap2/built-in.o
                0x00000000402f0f28                board_early_init_f
 .text.am33xx_spl_board_init
                0x00000000402f0f36        0x2 arch/arm/mach-omap2/built-in.o
                0x00000000402f0f36                am33xx_spl_board_init
 .text.s_init   0x00000000402f0f38        0x2 arch/arm/mach-omap2/built-in.o
                0x00000000402f0f38                s_init
 *fill*         0x00000000402f0f3a        0x2 
 .text.early_system_init
                0x00000000402f0f3c       0x9c arch/arm/mach-omap2/built-in.o
                0x00000000402f0f3c                early_system_init
 .text.board_init_f
                0x00000000402f0fd8       0x24 arch/arm/mach-omap2/built-in.o
                0x00000000402f0fd8                board_init_f
 .text.configure_module_pin_mux
                0x00000000402f0ffc       0x20 arch/arm/mach-omap2/built-in.o
                0x00000000402f0ffc                configure_module_pin_mux
 .text.hw_data_init
                0x00000000402f101c       0x14 arch/arm/mach-omap2/built-in.o
                0x00000000402f101c                hw_data_init
 .text.reset_cpu
                0x00000000402f1030       0x10 arch/arm/mach-omap2/built-in.o
                0x00000000402f1030                reset_cpu
 .text.timer_init
                0x00000000402f1040       0x18 arch/arm/mach-omap2/built-in.o
                0x00000000402f1040                timer_init
 .text.__udelay
                0x00000000402f1058       0x34 arch/arm/mach-omap2/built-in.o
                0x00000000402f1058                __udelay
 .text.get_timer_masked
                0x00000000402f108c       0x54 arch/arm/mach-omap2/built-in.o
                0x00000000402f108c                get_timer_masked
 .text.get_timer
                0x00000000402f10e0        0xc arch/arm/mach-omap2/built-in.o
                0x00000000402f10e0                get_timer
 .text.omap_sys_boot_device
                0x00000000402f10ec        0x4 arch/arm/mach-omap2/built-in.o
                0x00000000402f10ec                omap_sys_boot_device
 .text.save_omap_boot_params
                0x00000000402f10f0       0x78 arch/arm/mach-omap2/built-in.o
                0x00000000402f10f0                save_omap_boot_params
 .text.spl_boot_device
                0x00000000402f1168        0x6 arch/arm/mach-omap2/built-in.o
                0x00000000402f1168                spl_boot_device
 .text.spl_boot_mode
                0x00000000402f116e        0x6 arch/arm/mach-omap2/built-in.o
                0x00000000402f116e                spl_boot_mode
 .text.spl_board_init
                0x00000000402f1174       0x24 arch/arm/mach-omap2/built-in.o
                0x00000000402f1174                spl_board_init
 .text.jump_to_image_no_args
                0x00000000402f1198       0x10 arch/arm/mach-omap2/built-in.o
                0x00000000402f1198                jump_to_image_no_args
 .text          0x00000000402f11a8      0x158 arch/arm/cpu/armv7/built-in.o
                0x00000000402f11a8                __v7_flush_dcache_all
                0x00000000402f1244                v7_flush_dcache_all
                0x00000000402f1254                __v7_invalidate_dcache_all
                0x00000000402f12f0                v7_invalidate_dcache_all
 .text.invalidate_icache_all
                0x00000000402f1300       0x14 arch/arm/cpu/armv7/built-in.o
                0x00000000402f1300                invalidate_icache_all
 .text.v7_outer_cache_disable
                0x00000000402f1314        0x2 arch/arm/cpu/armv7/built-in.o
                0x00000000402f1314                v7_outer_cache_disable
 .text.v7_outer_cache_flush_all
                0x00000000402f1316        0x2 arch/arm/cpu/armv7/built-in.o
                0x00000000402f1316                v7_outer_cache_flush_all
 .text.flush_dcache_all
                0x00000000402f1318        0xe arch/arm/cpu/armv7/built-in.o
                0x00000000402f1318                flush_dcache_all
 .text.v7_outer_cache_inval_all
                0x00000000402f1326        0x2 arch/arm/cpu/armv7/built-in.o
                0x00000000402f1326                v7_outer_cache_inval_all
 .text.invalidate_dcache_all
                0x00000000402f1328        0xe arch/arm/cpu/armv7/built-in.o
                0x00000000402f1328                invalidate_dcache_all
 .text.v7_outer_cache_flush_range
                0x00000000402f1336        0x2 arch/arm/cpu/armv7/built-in.o
                0x00000000402f1336                v7_outer_cache_flush_range
 .text.flush_dcache_range
                0x00000000402f1338       0x38 arch/arm/cpu/armv7/built-in.o
                0x00000000402f1338                flush_dcache_range
 .text.cpu_cache_initialization
                0x00000000402f1370        0x2 arch/arm/cpu/armv7/built-in.o
                0x00000000402f1370                cpu_cache_initialization
 .text.cleanup_before_linux_select
                0x00000000402f1372       0x38 arch/arm/cpu/armv7/built-in.o
                0x00000000402f1372                cleanup_before_linux_select
 .text.cleanup_before_linux
                0x00000000402f13aa        0x6 arch/arm/cpu/armv7/built-in.o
                0x00000000402f13aa                cleanup_before_linux
 .text.wait_on_value
                0x00000000402f13b0       0x1e arch/arm/cpu/armv7/built-in.o
                0x00000000402f13b0                wait_on_value
 *fill*         0x00000000402f13ce        0x2 
 .text.lowlevel_init
                0x00000000402f13d0       0x1c arch/arm/cpu/armv7/built-in.o
                0x00000000402f13d0                lowlevel_init
 *fill*         0x00000000402f13ec       0x14 
 .text          0x00000000402f1400      0x400 arch/arm/lib/built-in.o
                0x00000000402f1400                _main
                0x00000000402f1480                memset
                0x00000000402f1520                memcpy
 .text.jump_to_image_linux
                0x00000000402f1800       0x14 arch/arm/lib/built-in.o
                0x00000000402f1800                jump_to_image_linux
 .text.bootz_setup
                0x00000000402f1814       0x6c arch/arm/lib/built-in.o
                0x00000000402f1814                bootz_setup
 .text.arch_fixup_fdt
                0x00000000402f1880       0x24 arch/arm/lib/built-in.o
                0x00000000402f1880                arch_fixup_fdt
 .text.disable_interrupts
                0x00000000402f18a4        0x4 arch/arm/lib/built-in.o
                0x00000000402f18a4                disable_interrupts
 .text.reset_misc
                0x00000000402f18a8        0x2 arch/arm/lib/built-in.o
                0x00000000402f18a8                reset_misc
 *fill*         0x00000000402f18aa        0x2 
 .text.do_reset
                0x00000000402f18ac       0x28 arch/arm/lib/built-in.o
                0x00000000402f18ac                do_reset
 .text.check_cache_range
                0x00000000402f18d4       0x14 arch/arm/lib/built-in.o
                0x00000000402f18d4                check_cache_range
 .text.icache_enable
                0x00000000402f18e8       0x12 arch/arm/lib/built-in.o
                0x00000000402f18e8                icache_enable
 .text.icache_disable
                0x00000000402f18fa       0x16 arch/arm/lib/built-in.o
                0x00000000402f18fa                icache_disable
 .text.dcache_disable
                0x00000000402f1910       0x20 arch/arm/lib/built-in.o
                0x00000000402f1910                dcache_disable
 .text.enable_uart0_pin_mux
                0x00000000402f1930        0xc board/ti/am335x/built-in.o
                0x00000000402f1930                enable_uart0_pin_mux
 .text.enable_i2c0_pin_mux
                0x00000000402f193c        0xc board/ti/am335x/built-in.o
                0x00000000402f193c                enable_i2c0_pin_mux
 .text.enable_board_pin_mux
                0x00000000402f1948      0x158 board/ti/am335x/built-in.o
                0x00000000402f1948                enable_board_pin_mux
 .text.bone_not_connected_to_ac_power.part.0
                0x00000000402f1aa0       0x28 board/ti/am335x/built-in.o
 .text.do_board_detect
                0x00000000402f1ac8       0x2c board/ti/am335x/built-in.o
                0x00000000402f1ac8                do_board_detect
 .text.spl_start_uboot
                0x00000000402f1af4       0x30 board/ti/am335x/built-in.o
                0x00000000402f1af4                spl_start_uboot
 .text.get_dpll_ddr_params
                0x00000000402f1b24       0x90 board/ti/am335x/built-in.o
                0x00000000402f1b24                get_dpll_ddr_params
 .text.get_dpll_mpu_params
                0x00000000402f1bb4       0xac board/ti/am335x/built-in.o
                0x00000000402f1bb4                get_dpll_mpu_params
 .text.scale_vcores_generic
                0x00000000402f1c60       0x40 board/ti/am335x/built-in.o
                0x00000000402f1c60                scale_vcores_generic
 .text.gpi2c_init
                0x00000000402f1ca0       0x24 board/ti/am335x/built-in.o
                0x00000000402f1ca0                gpi2c_init
 .text.scale_vcores
                0x00000000402f1cc4      0x140 board/ti/am335x/built-in.o
                0x00000000402f1cc4                scale_vcores
 .text.set_uart_mux_conf
                0x00000000402f1e04        0x4 board/ti/am335x/built-in.o
                0x00000000402f1e04                set_uart_mux_conf
 .text.set_mux_conf_regs
                0x00000000402f1e08        0x4 board/ti/am335x/built-in.o
                0x00000000402f1e08                set_mux_conf_regs
 .text.sdram_init
                0x00000000402f1e0c      0x16c board/ti/am335x/built-in.o
                0x00000000402f1e0c                sdram_init
 .text.ti_eeprom_string_cleanup
                0x00000000402f1f78       0x22 board/ti/common/built-in.o
 .text.ti_i2c_eeprom_get
                0x00000000402f1f9a       0x9c board/ti/common/built-in.o
 *fill*         0x00000000402f2036        0x2 
 .text.ti_i2c_eeprom_am_get
                0x00000000402f2038       0xc0 board/ti/common/built-in.o
                0x00000000402f2038                ti_i2c_eeprom_am_get
 .text.board_ti_is
                0x00000000402f20f8       0x30 board/ti/common/built-in.o
                0x00000000402f20f8                board_ti_is
 .text.board_ti_get_rev
                0x00000000402f2128        0x8 board/ti/common/built-in.o
                0x00000000402f2128                board_ti_get_rev
 .text.board_ti_get_config
                0x00000000402f2130        0x8 board/ti/common/built-in.o
                0x00000000402f2130                board_ti_get_config
 .text.show_boot_progress
                0x00000000402f2138        0x2 common/spl/built-in.o
                0x00000000402f2138                show_boot_progress
 *fill*         0x00000000402f213a        0x2 
 .text.spl_fixup_fdt
                0x00000000402f213c       0x50 common/spl/built-in.o
                0x00000000402f213c                spl_fixup_fdt
 .text.spl_board_prepare_for_linux
                0x00000000402f218c        0x2 common/spl/built-in.o
                0x00000000402f218c                spl_board_prepare_for_linux
 .text.spl_board_prepare_for_boot
                0x00000000402f218e        0x2 common/spl/built-in.o
                0x00000000402f218e                spl_board_prepare_for_boot
 .text.spl_set_header_raw_uboot
                0x00000000402f2190       0x20 common/spl/built-in.o
                0x00000000402f2190                spl_set_header_raw_uboot
 .text.spl_parse_image_header
                0x00000000402f21b0       0x78 common/spl/built-in.o
                0x00000000402f21b0                spl_parse_image_header
 .text.spl_set_bd
                0x00000000402f2228       0x14 common/spl/built-in.o
                0x00000000402f2228                spl_set_bd
 .text.spl_early_init
                0x00000000402f223c       0x2c common/spl/built-in.o
                0x00000000402f223c                spl_early_init
 .text.spl_init
                0x00000000402f2268       0x2c common/spl/built-in.o
                0x00000000402f2268                spl_init
 .text.board_boot_order
                0x00000000402f2294        0xc common/spl/built-in.o
                0x00000000402f2294                board_boot_order
 .text.board_init_r
                0x00000000402f22a0       0xe4 common/spl/built-in.o
                0x00000000402f22a0                board_init_r
 .text.preloader_console_init
                0x00000000402f2384       0x24 common/spl/built-in.o
                0x00000000402f2384                preloader_console_init
 .text.spl_relocate_stack_gd
                0x00000000402f23a8       0x34 common/spl/built-in.o
                0x00000000402f23a8                spl_relocate_stack_gd
 .text.spl_ymodem_load_image
                0x00000000402f23dc       0xa4 common/spl/built-in.o
 .text.getcymodem
                0x00000000402f2480       0x16 common/spl/built-in.o
 *fill*         0x00000000402f2496        0x2 
 .text.mmc_load_image_raw_sector
                0x00000000402f2498       0x68 common/spl/built-in.o
 .text.spl_mmc_load_image
                0x00000000402f2500      0x190 common/spl/built-in.o
                0x00000000402f2500                spl_mmc_load_image
 .text.spl_load_image_fat
                0x00000000402f2690       0x84 common/spl/built-in.o
                0x00000000402f2690                spl_load_image_fat
 .text.spl_load_image_fat_os
                0x00000000402f2714       0xe4 common/spl/built-in.o
                0x00000000402f2714                spl_load_image_fat_os
 .text.spl_load_image_ext
                0x00000000402f27f8       0xdc common/spl/built-in.o
                0x00000000402f27f8                spl_load_image_ext
 .text.spl_load_image_ext_os
                0x00000000402f28d4      0x130 common/spl/built-in.o
                0x00000000402f28d4                spl_load_image_ext_os
 .text.board_init_f_alloc_reserve
                0x00000000402f2a04        0xa common/init/built-in.o
                0x00000000402f2a04                board_init_f_alloc_reserve
 .text.board_init_f_init_reserve
                0x00000000402f2a0e       0x14 common/init/built-in.o
                0x00000000402f2a0e                board_init_f_init_reserve
 .text.CYGACC_COMM_IF_GETC_TIMEOUT.isra.0
                0x00000000402f2a22       0x2e common/built-in.o
 .text.xyzModem_flush
                0x00000000402f2a50       0x14 common/built-in.o
 .text.xyzModem_get_hdr
                0x00000000402f2a64      0x170 common/built-in.o
 .text.xyzModem_stream_open
                0x00000000402f2bd4      0x170 common/built-in.o
                0x00000000402f2bd4                xyzModem_stream_open
 .text.xyzModem_stream_read
                0x00000000402f2d44      0x1bc common/built-in.o
                0x00000000402f2d44                xyzModem_stream_read
 .text.xyzModem_stream_close
                0x00000000402f2f00       0x40 common/built-in.o
                0x00000000402f2f00                xyzModem_stream_close
 .text.xyzModem_stream_terminate
                0x00000000402f2f40       0x68 common/built-in.o
                0x00000000402f2f40                xyzModem_stream_terminate
 .text.xyzModem_error
                0x00000000402f2fa8       0x18 common/built-in.o
                0x00000000402f2fa8                xyzModem_error
 .text.fdt_find_or_add_subnode
                0x00000000402f2fc0       0x40 common/built-in.o
                0x00000000402f2fc0                fdt_find_or_add_subnode
 .text.fdt_fixup_memory_banks
                0x00000000402f3000      0x15c common/built-in.o
                0x00000000402f3000                fdt_fixup_memory_banks
 .text.fdt_shrink_to_minimum
                0x00000000402f315c       0x8e common/built-in.o
                0x00000000402f315c                fdt_shrink_to_minimum
 *fill*         0x00000000402f31ea        0x2 
 .text.fgetc    0x00000000402f31ec       0x18 common/built-in.o
                0x00000000402f31ec                fgetc
 .text.getc     0x00000000402f3204       0x1a common/built-in.o
                0x00000000402f3204                getc
 *fill*         0x00000000402f321e        0x2 
 .text.ftstc    0x00000000402f3220       0x18 common/built-in.o
                0x00000000402f3220                ftstc
 .text.tstc     0x00000000402f3238       0x1a common/built-in.o
                0x00000000402f3238                tstc
 *fill*         0x00000000402f3252        0x2 
 .text.fputc    0x00000000402f3254       0x14 common/built-in.o
                0x00000000402f3254                fputc
 .text.putc     0x00000000402f3268       0x1c common/built-in.o
                0x00000000402f3268                putc
 .text.fputs    0x00000000402f3284       0x14 common/built-in.o
                0x00000000402f3284                fputs
 .text.puts     0x00000000402f3298       0x1c common/built-in.o
                0x00000000402f3298                puts
 .text.mem_malloc_init
                0x00000000402f32b4       0x28 common/built-in.o
                0x00000000402f32b4                mem_malloc_init
 .text.malloc_simple
                0x00000000402f32dc       0x28 common/built-in.o
                0x00000000402f32dc                malloc_simple
 .text.memalign_simple
                0x00000000402f3304       0x32 common/built-in.o
                0x00000000402f3304                memalign_simple
 .text.calloc   0x00000000402f3336       0x18 common/built-in.o
                0x00000000402f3336                calloc
 .text.get_ram_size
                0x00000000402f334e       0x92 common/built-in.o
                0x00000000402f334e                get_ram_size
 .text.envmatch
                0x00000000402f33e0       0x42 cmd/built-in.o
                0x00000000402f33e0                envmatch
 *fill*         0x00000000402f3422        0x2 
 .text.env_get_f
                0x00000000402f3424       0x98 cmd/built-in.o
                0x00000000402f3424                env_get_f
 .text.env_get  0x00000000402f34bc       0x54 cmd/built-in.o
                0x00000000402f34bc                env_get
 .text.env_get_yesno
                0x00000000402f3510       0x2a env/built-in.o
                0x00000000402f3510                env_get_yesno
 .text.env_get_default
                0x00000000402f353a       0x2a env/built-in.o
                0x00000000402f353a                env_get_default
 .text.set_default_env
                0x00000000402f3564       0x70 env/built-in.o
                0x00000000402f3564                set_default_env
 .text.env_import
                0x00000000402f35d4       0x80 env/built-in.o
                0x00000000402f35d4                env_import
 .text.env_import_redund
                0x00000000402f3654       0xf4 env/built-in.o
                0x00000000402f3654                env_import_redund
 .text.env_get_location
                0x00000000402f3748       0x28 env/built-in.o
                0x00000000402f3748                env_get_location
 .text.env_driver_lookup
                0x00000000402f3770       0x2c env/built-in.o
 .text.env_get_char_spec
                0x00000000402f379c        0x8 env/built-in.o
                0x00000000402f379c                env_get_char_spec
 .text.env_get_char
                0x00000000402f37a4       0x14 env/built-in.o
                0x00000000402f37a4                env_get_char
 .text.env_load
                0x00000000402f37b8       0x60 env/built-in.o
                0x00000000402f37b8                env_load
 .text.env_init
                0x00000000402f3818       0x58 env/built-in.o
                0x00000000402f3818                env_init
 .text.regex_callback
                0x00000000402f3870       0xc0 env/built-in.o
 .text.env_attr_walk
                0x00000000402f3930       0xa2 env/built-in.o
                0x00000000402f3930                env_attr_walk
 *fill*         0x00000000402f39d2        0x2 
 .text.env_attr_lookup
                0x00000000402f39d4       0x40 env/built-in.o
                0x00000000402f39d4                env_attr_lookup
 .text.skip_num
                0x00000000402f3a14       0x3c env/built-in.o
 .text.env_flags_parse_vartype
                0x00000000402f3a50       0x30 env/built-in.o
                0x00000000402f3a50                env_flags_parse_vartype
 .text.env_flags_parse_varaccess
                0x00000000402f3a80       0x30 env/built-in.o
                0x00000000402f3a80                env_flags_parse_varaccess
 .text.eth_validate_ethaddr_str
                0x00000000402f3ab0       0x50 env/built-in.o
                0x00000000402f3ab0                eth_validate_ethaddr_str
 .text.env_flags_init
                0x00000000402f3b00       0x90 env/built-in.o
                0x00000000402f3b00                env_flags_init
 .text.env_flags_validate
                0x00000000402f3b90      0x188 env/built-in.o
                0x00000000402f3b90                env_flags_validate
 .text.env_callback_init
                0x00000000402f3d18       0xa0 env/built-in.o
                0x00000000402f3d18                env_callback_init
 .text.mmc_get_env_addr
                0x00000000402f3db8       0x14 env/built-in.o
                0x00000000402f3db8                mmc_get_env_addr
 .text.mmc_get_env_dev
                0x00000000402f3dcc        0x4 env/built-in.o
                0x00000000402f3dcc                mmc_get_env_dev
 .text.fini_mmc_for_env.isra.0
                0x00000000402f3dd0       0x1c env/built-in.o
 .text.mmc_get_env_part
                0x00000000402f3dec        0x4 env/built-in.o
                0x00000000402f3dec                mmc_get_env_part
 .text.env_mmc_load
                0x00000000402f3df0      0x180 env/built-in.o
 .text.env_fat_load
                0x00000000402f3f70       0xa0 env/built-in.o
 .text.fdt_check_header
                0x00000000402f4010       0x4c lib/built-in.o
                0x00000000402f4010                fdt_check_header
 .text.fdt_offset_ptr
                0x00000000402f405c       0x32 lib/built-in.o
                0x00000000402f405c                fdt_offset_ptr
 *fill*         0x00000000402f408e        0x2 
 .text.fdt_next_tag
                0x00000000402f4090       0xa8 lib/built-in.o
                0x00000000402f4090                fdt_next_tag
 .text._fdt_check_node_offset
                0x00000000402f4138       0x24 lib/built-in.o
                0x00000000402f4138                _fdt_check_node_offset
 .text._fdt_check_prop_offset
                0x00000000402f415c       0x24 lib/built-in.o
                0x00000000402f415c                _fdt_check_prop_offset
 .text.fdt_next_node
                0x00000000402f4180       0x6e lib/built-in.o
                0x00000000402f4180                fdt_next_node
 .text._fdt_find_string
                0x00000000402f41ee       0x30 lib/built-in.o
                0x00000000402f41ee                _fdt_find_string
 *fill*         0x00000000402f421e        0x2 
 .text.fdt_strerror
                0x00000000402f4220       0x3c lib/built-in.o
                0x00000000402f4220                fdt_strerror
 .text._fdt_blocks_misordered
                0x00000000402f425c       0x36 lib/built-in.o
 .text._fdt_splice
                0x00000000402f4292       0x4a lib/built-in.o
 .text._fdt_splice_mem_rsv
                0x00000000402f42dc       0x2c lib/built-in.o
 .text._fdt_splice_struct
                0x00000000402f4308       0x26 lib/built-in.o
 .text._fdt_add_property
                0x00000000402f432e       0xb2 lib/built-in.o
 .text._fdt_rw_check_header
                0x00000000402f43e0       0x38 lib/built-in.o
 .text.fdt_add_mem_rsv
                0x00000000402f4418       0x56 lib/built-in.o
                0x00000000402f4418                fdt_add_mem_rsv
 .text.fdt_del_mem_rsv
                0x00000000402f446e       0x3c lib/built-in.o
                0x00000000402f446e                fdt_del_mem_rsv
 .text.fdt_setprop_placeholder
                0x00000000402f44aa       0x70 lib/built-in.o
                0x00000000402f44aa                fdt_setprop_placeholder
 .text.fdt_setprop
                0x00000000402f451a       0x26 lib/built-in.o
                0x00000000402f451a                fdt_setprop
 .text.fdt_add_subnode_namelen
                0x00000000402f4540       0x98 lib/built-in.o
                0x00000000402f4540                fdt_add_subnode_namelen
 .text.fdt_add_subnode
                0x00000000402f45d8       0x1e lib/built-in.o
                0x00000000402f45d8                fdt_add_subnode
 *fill*         0x00000000402f45f6        0x2 
 .text.fdt_address_cells
                0x00000000402f45f8       0x34 lib/built-in.o
                0x00000000402f45f8                fdt_address_cells
 .text.fdt_size_cells
                0x00000000402f462c       0x34 lib/built-in.o
                0x00000000402f462c                fdt_size_cells
 .text._nextprop
                0x00000000402f4660       0x32 lib/built-in.o
 .text.fdt_string
                0x00000000402f4692        0xa lib/built-in.o
                0x00000000402f4692                fdt_string
 .text.fdt_get_mem_rsv
                0x00000000402f469c       0x38 lib/built-in.o
                0x00000000402f469c                fdt_get_mem_rsv
 .text.fdt_num_mem_rsv
                0x00000000402f46d4       0x20 lib/built-in.o
                0x00000000402f46d4                fdt_num_mem_rsv
 .text.fdt_subnode_offset_namelen
                0x00000000402f46f4       0x88 lib/built-in.o
                0x00000000402f46f4                fdt_subnode_offset_namelen
 .text.fdt_subnode_offset
                0x00000000402f477c       0x1e lib/built-in.o
                0x00000000402f477c                fdt_subnode_offset
 .text.fdt_get_name
                0x00000000402f479a       0x3e lib/built-in.o
                0x00000000402f479a                fdt_get_name
 .text.fdt_first_property_offset
                0x00000000402f47d8       0x18 lib/built-in.o
                0x00000000402f47d8                fdt_first_property_offset
 .text.fdt_next_property_offset
                0x00000000402f47f0       0x18 lib/built-in.o
                0x00000000402f47f0                fdt_next_property_offset
 .text.fdt_get_property_by_offset
                0x00000000402f4808       0x30 lib/built-in.o
                0x00000000402f4808                fdt_get_property_by_offset
 .text.fdt_get_property_namelen
                0x00000000402f4838       0x74 lib/built-in.o
                0x00000000402f4838                fdt_get_property_namelen
 .text.fdt_get_property
                0x00000000402f48ac       0x22 lib/built-in.o
                0x00000000402f48ac                fdt_get_property
 .text.fdt_getprop_namelen
                0x00000000402f48ce       0x12 lib/built-in.o
                0x00000000402f48ce                fdt_getprop_namelen
 .text.fdt_getprop
                0x00000000402f48e0       0x22 lib/built-in.o
                0x00000000402f48e0                fdt_getprop
 *fill*         0x00000000402f4902        0x2 
 .text.crc16_ccitt
                0x00000000402f4904       0x28 lib/built-in.o
                0x00000000402f4904                crc16_ccitt
 .text.drop_var_from_set.part.2
                0x00000000402f492c       0x30 lib/built-in.o
 .text.hcreate_r
                0x00000000402f495c       0x58 lib/built-in.o
                0x00000000402f495c                hcreate_r
 .text.hdestroy_r
                0x00000000402f49b4       0x14 lib/built-in.o
                0x00000000402f49b4                hdestroy_r
 .text.hsearch_r
                0x00000000402f49c8      0x2a4 lib/built-in.o
                0x00000000402f49c8                hsearch_r
 .text.hdelete_r
                0x00000000402f4c6c       0x94 lib/built-in.o
                0x00000000402f4c6c                hdelete_r
 .text.himport_r
                0x00000000402f4d00      0x220 lib/built-in.o
                0x00000000402f4d00                himport_r
 .text.crc32_no_comp
                0x00000000402f4f20       0x8c lib/built-in.o
                0x00000000402f4f20                crc32_no_comp
 .text.crc32    0x00000000402f4fac        0xc lib/built-in.o
                0x00000000402f4fac                crc32
 .text.__div64_32
                0x00000000402f4fb8       0x7c lib/built-in.o
                0x00000000402f4fb8                __div64_32
 .text.hang     0x00000000402f5034       0x18 lib/built-in.o
                0x00000000402f5034                hang
 .text.kmalloc  0x00000000402f504c       0x20 lib/built-in.o
                0x00000000402f504c                kmalloc
 .text.skip_spaces
                0x00000000402f506c       0x18 lib/built-in.o
                0x00000000402f506c                skip_spaces
 .text.strim    0x00000000402f5084       0x34 lib/built-in.o
                0x00000000402f5084                strim
 .text.emit     0x00000000402f50b8       0x20 lib/built-in.o
 .text.store_char_in_data
                0x00000000402f50d8       0x24 lib/built-in.o
 .text.get_escape_char
                0x00000000402f50fc       0x48 lib/built-in.o
 .text.relocate
                0x00000000402f5144       0x2a lib/built-in.o
 *fill*         0x00000000402f516e        0x2 
 .text.match    0x00000000402f5170      0x264 lib/built-in.o
 .text.loop_greedy
                0x00000000402f53d4       0x56 lib/built-in.o
 .text.loop_non_greedy
                0x00000000402f542a       0x4c lib/built-in.o
 *fill*         0x00000000402f5476        0x2 
 .text.quantifier
                0x00000000402f5478       0x5c lib/built-in.o
 .text.fixup_branch
                0x00000000402f54d4       0x28 lib/built-in.o
 .text.compile  0x00000000402f54fc      0x218 lib/built-in.o
 .text.slre_compile
                0x00000000402f5714       0x8c lib/built-in.o
                0x00000000402f5714                slre_compile
 .text.slre_match
                0x00000000402f57a0       0x5a lib/built-in.o
                0x00000000402f57a0                slre_match
 *fill*         0x00000000402f57fa        0x2 
 .text.strncasecmp
                0x00000000402f57fc       0x44 lib/built-in.o
                0x00000000402f57fc                strncasecmp
 .text.strcpy   0x00000000402f5840       0x10 lib/built-in.o
                0x00000000402f5840                strcpy
 .text.strncpy  0x00000000402f5850       0x18 lib/built-in.o
                0x00000000402f5850                strncpy
 .text.strcat   0x00000000402f5868       0x1e lib/built-in.o
                0x00000000402f5868                strcat
 .text.strcmp   0x00000000402f5886       0x16 lib/built-in.o
                0x00000000402f5886                strcmp
 .text.strncmp  0x00000000402f589c       0x22 lib/built-in.o
                0x00000000402f589c                strncmp
 .text.strchr   0x00000000402f58be       0x18 lib/built-in.o
                0x00000000402f58be                strchr
 .text.strlen   0x00000000402f58d6       0x10 lib/built-in.o
                0x00000000402f58d6                strlen
 .text.strlcpy  0x00000000402f58e6       0x2e lib/built-in.o
                0x00000000402f58e6                strlcpy
 .text.strnlen  0x00000000402f5914       0x18 lib/built-in.o
                0x00000000402f5914                strnlen
 .text.strdup   0x00000000402f592c       0x22 lib/built-in.o
                0x00000000402f592c                strdup
 .text.memmove  0x00000000402f594e       0x26 lib/built-in.o
                0x00000000402f594e                memmove
 .text.memcmp   0x00000000402f5974       0x1a lib/built-in.o
                0x00000000402f5974                memcmp
 .text.memchr   0x00000000402f598e       0x1c lib/built-in.o
                0x00000000402f598e                memchr
 *fill*         0x00000000402f59aa        0x2 
 .text.udelay   0x00000000402f59ac       0x24 lib/built-in.o
                0x00000000402f59ac                udelay
 .text.uuid_bin_to_str
                0x00000000402f59d0       0x78 lib/built-in.o
                0x00000000402f59d0                uuid_bin_to_str
 .text.panic_finish
                0x00000000402f5a48       0x20 lib/built-in.o
 .text.panic_str
                0x00000000402f5a68        0xa lib/built-in.o
                0x00000000402f5a68                panic_str
 .text.panic    0x00000000402f5a72       0x14 lib/built-in.o
                0x00000000402f5a72                panic
 .text.putc_outstr
                0x00000000402f5a86        0xa lib/built-in.o
 .text.putc_normal
                0x00000000402f5a90        0x6 lib/built-in.o
 .text.div_out  0x00000000402f5a96       0x34 lib/built-in.o
 *fill*         0x00000000402f5aca        0x2 
 .text._vprintf
                0x00000000402f5acc      0x1dc lib/built-in.o
 .text.vprintf  0x00000000402f5ca8       0x1c lib/built-in.o
                0x00000000402f5ca8                vprintf
 .text.printf   0x00000000402f5cc4       0x24 lib/built-in.o
                0x00000000402f5cc4                printf
 .text.sprintf  0x00000000402f5ce8       0x2c lib/built-in.o
                0x00000000402f5ce8                sprintf
 .text.snprintf
                0x00000000402f5d14       0x2c lib/built-in.o
                0x00000000402f5d14                snprintf
 .text._parse_integer_fixup_radix
                0x00000000402f5d40       0x5c lib/built-in.o
 .text.simple_strtoul
                0x00000000402f5d9c       0x50 lib/built-in.o
                0x00000000402f5d9c                simple_strtoul
 .text.part_driver_lookup_type
                0x00000000402f5dec       0x44 disk/built-in.o
 .text.part_init
                0x00000000402f5e30       0x2c disk/built-in.o
                0x00000000402f5e30                part_init
 .text.part_get_info
                0x00000000402f5e5c       0x36 disk/built-in.o
                0x00000000402f5e5c                part_get_info
 *fill*         0x00000000402f5e92        0x2 
 .text.part_get_info_whole_disk
                0x00000000402f5e94       0x38 disk/built-in.o
                0x00000000402f5e94                part_get_info_whole_disk
 .text.blk_get_device_by_str
                0x00000000402f5ecc       0xc0 disk/built-in.o
                0x00000000402f5ecc                blk_get_device_by_str
 .text.blk_get_device_part_str
                0x00000000402f5f8c      0x22c disk/built-in.o
                0x00000000402f5f8c                blk_get_device_part_str
 .text.part_set_generic_name
                0x00000000402f61b8       0x34 disk/built-in.o
                0x00000000402f61b8                part_set_generic_name
 .text.test_block_type
                0x00000000402f61ec       0x4c disk/built-in.o
 .text.part_test_dos
                0x00000000402f6238       0x40 disk/built-in.o
 .text.part_get_info_extended
                0x00000000402f6278      0x1ec disk/built-in.o
 .text.part_get_info_dos
                0x00000000402f6464       0x16 disk/built-in.o
                0x00000000402f6464                part_get_info_dos
 *fill*         0x00000000402f647a        0x2 
 .text.print_efiname
                0x00000000402f647c       0x38 disk/built-in.o
 .text.part_test_efi
                0x00000000402f64b4       0x76 disk/built-in.o
 *fill*         0x00000000402f652a        0x2 
 .text.validate_gpt_entries
                0x00000000402f652c       0x80 disk/built-in.o
 *fill*         0x00000000402f65ac        0x4 
 .text.validate_gpt_header
                0x00000000402f65b0      0x1a0 disk/built-in.o
 .text.is_gpt_valid
                0x00000000402f6750      0x1b4 disk/built-in.o
 .text.is_pte_valid
                0x00000000402f6904       0x38 disk/built-in.o
 .text.part_get_info_efi
                0x00000000402f693c      0x168 disk/built-in.o
                0x00000000402f693c                part_get_info_efi
 .text.device_bind_common.isra.0
                0x00000000402f6aa4      0x166 drivers/built-in.o
 .text.alloc_priv
                0x00000000402f6c0a       0x38 drivers/built-in.o
 .text.device_bind_by_name
                0x00000000402f6c42       0x44 drivers/built-in.o
                0x00000000402f6c42                device_bind_by_name
 .text.device_probe
                0x00000000402f6c86      0x108 drivers/built-in.o
                0x00000000402f6c86                device_probe
 .text.dev_get_platdata
                0x00000000402f6d8e        0x6 drivers/built-in.o
                0x00000000402f6d8e                dev_get_platdata
 .text.dev_get_priv
                0x00000000402f6d94        0x6 drivers/built-in.o
                0x00000000402f6d94                dev_get_priv
 .text.dev_get_uclass_priv
                0x00000000402f6d9a        0x6 drivers/built-in.o
                0x00000000402f6d9a                dev_get_uclass_priv
 .text.devfdt_get_addr
                0x00000000402f6da0        0x6 drivers/built-in.o
                0x00000000402f6da0                devfdt_get_addr
 *fill*         0x00000000402f6da6        0x2 
 .text.lists_driver_lookup_name
                0x00000000402f6da8       0x2c drivers/built-in.o
                0x00000000402f6da8                lists_driver_lookup_name
 .text.lists_uclass_lookup
                0x00000000402f6dd4       0x20 drivers/built-in.o
                0x00000000402f6dd4                lists_uclass_lookup
 .text.lists_bind_drivers
                0x00000000402f6df4       0x48 drivers/built-in.o
                0x00000000402f6df4                lists_bind_drivers
 .text.dm_fixup_for_gd_move
                0x00000000402f6e3c       0x14 drivers/built-in.o
                0x00000000402f6e3c                dm_fixup_for_gd_move
 .text.dm_init  0x00000000402f6e50       0x38 drivers/built-in.o
                0x00000000402f6e50                dm_init
 .text.dm_scan_platdata
                0x00000000402f6e88       0x16 drivers/built-in.o
                0x00000000402f6e88                dm_scan_platdata
 .text.dm_scan_other
                0x00000000402f6e9e        0x4 drivers/built-in.o
                0x00000000402f6e9e                dm_scan_other
 .text.dm_init_and_scan
                0x00000000402f6ea2       0x20 drivers/built-in.o
                0x00000000402f6ea2                dm_init_and_scan
 .text.uclass_find
                0x00000000402f6ec2       0x2e drivers/built-in.o
                0x00000000402f6ec2                uclass_find
 .text.uclass_get
                0x00000000402f6ef0       0x92 drivers/built-in.o
                0x00000000402f6ef0                uclass_get
 .text.uclass_find_device
                0x00000000402f6f82       0x42 drivers/built-in.o
                0x00000000402f6f82                uclass_find_device
 .text.uclass_find_first_device
                0x00000000402f6fc4       0x22 drivers/built-in.o
                0x00000000402f6fc4                uclass_find_first_device
 .text.uclass_find_next_device
                0x00000000402f6fe6       0x18 drivers/built-in.o
                0x00000000402f6fe6                uclass_find_next_device
 .text.uclass_find_device_by_seq
                0x00000000402f6ffe       0x54 drivers/built-in.o
                0x00000000402f6ffe                uclass_find_device_by_seq
 .text.uclass_get_device_tail
                0x00000000402f7052       0x16 drivers/built-in.o
                0x00000000402f7052                uclass_get_device_tail
 .text.uclass_get_device
                0x00000000402f7068       0x1c drivers/built-in.o
                0x00000000402f7068                uclass_get_device
 .text.uclass_get_device_by_seq
                0x00000000402f7084       0x32 drivers/built-in.o
                0x00000000402f7084                uclass_get_device_by_seq
 .text.uclass_first_device
                0x00000000402f70b6       0x1e drivers/built-in.o
                0x00000000402f70b6                uclass_first_device
 .text.uclass_next_device
                0x00000000402f70d4       0x24 drivers/built-in.o
                0x00000000402f70d4                uclass_next_device
 .text.uclass_bind_device
                0x00000000402f70f8       0x3a drivers/built-in.o
                0x00000000402f70f8                uclass_bind_device
 .text.uclass_resolve_seq
                0x00000000402f7132       0x52 drivers/built-in.o
                0x00000000402f7132                uclass_resolve_seq
 .text.uclass_pre_probe_device
                0x00000000402f7184       0x2e drivers/built-in.o
                0x00000000402f7184                uclass_pre_probe_device
 .text.uclass_post_probe_device
                0x00000000402f71b2        0xe drivers/built-in.o
                0x00000000402f71b2                uclass_post_probe_device
 .text.i2c_get_adapter
                0x00000000402f71c0       0x40 drivers/built-in.o
                0x00000000402f71c0                i2c_get_adapter
 .text.i2c_init_bus
                0x00000000402f7200       0x64 drivers/built-in.o
 .text.i2c_set_bus_num
                0x00000000402f7264       0x80 drivers/built-in.o
                0x00000000402f7264                i2c_set_bus_num
 .text.i2c_probe
                0x00000000402f72e4       0x20 drivers/built-in.o
                0x00000000402f72e4                i2c_probe
 .text.i2c_read
                0x00000000402f7304       0x34 drivers/built-in.o
                0x00000000402f7304                i2c_read
 .text.i2c_write
                0x00000000402f7338       0x34 drivers/built-in.o
                0x00000000402f7338                i2c_write
 .text.i2c_init
                0x00000000402f736c        0xe drivers/built-in.o
                0x00000000402f736c                i2c_init
 *fill*         0x00000000402f737a        0x2 
 .text.__omap24_i2c_setspeed
                0x00000000402f737c      0x100 drivers/built-in.o
 .text.wait_for_bb
                0x00000000402f747c       0x58 drivers/built-in.o
 .text.wait_for_event
                0x00000000402f74d4       0x50 drivers/built-in.o
 .text.flush_fifo
                0x00000000402f7524       0x2a drivers/built-in.o
 *fill*         0x00000000402f754e        0x2 
 .text.omap24_get_base.isra.0
                0x00000000402f7550       0x34 drivers/built-in.o
 .text.omap24_i2c_setspeed
                0x00000000402f7584       0x34 drivers/built-in.o
 .text.omap24_i2c_write
                0x00000000402f75b8      0x194 drivers/built-in.o
 .text.omap24_i2c_read
                0x00000000402f774c      0x174 drivers/built-in.o
 .text.omap24_i2c_probe
                0x00000000402f78c0       0xa8 drivers/built-in.o
 .text.omap24_i2c_init
                0x00000000402f7968      0x21c drivers/built-in.o
 .text.mmc_set_ios
                0x00000000402f7b84        0xe drivers/built-in.o
 .text.mmc_set_capacity
                0x00000000402f7b92       0x6c drivers/built-in.o
 .text.board_mmc_getcd
                0x00000000402f7bfe        0x6 drivers/built-in.o
                0x00000000402f7bfe                board_mmc_getcd
 .text.mmc_send_cmd
                0x00000000402f7c04        0x8 drivers/built-in.o
                0x00000000402f7c04                mmc_send_cmd
 .text.mmc_go_idle
                0x00000000402f7c0c       0x32 drivers/built-in.o
 *fill*         0x00000000402f7c3e        0x2 
 .text.mmc_send_op_cond_iter
                0x00000000402f7c40       0x44 drivers/built-in.o
 .text.mmc_send_ext_csd
                0x00000000402f7c84       0x2e drivers/built-in.o
 *fill*         0x00000000402f7cb2        0x2 
 .text.mmc_read_and_compare_ext_csd
                0x00000000402f7cb4       0x78 drivers/built-in.o
 .text.mmc_send_status
                0x00000000402f7d2c       0x84 drivers/built-in.o
                0x00000000402f7d2c                mmc_send_status
 .text.mmc_set_blocklen
                0x00000000402f7db0       0x42 drivers/built-in.o
                0x00000000402f7db0                mmc_set_blocklen
 *fill*         0x00000000402f7df2        0x2 
 .text.mmc_bread
                0x00000000402f7df4       0xe0 drivers/built-in.o
                0x00000000402f7df4                mmc_bread
 .text.mmc_switch
                0x00000000402f7ed4       0x3e drivers/built-in.o
                0x00000000402f7ed4                mmc_switch
 *fill*         0x00000000402f7f12        0x2 
 .text.mmc_startup_v4
                0x00000000402f7f14      0x1e0 drivers/built-in.o
 .text.mmc_set_card_speed
                0x00000000402f80f4       0x68 drivers/built-in.o
 .text.mmc_switch_part
                0x00000000402f815c       0x40 drivers/built-in.o
                0x00000000402f815c                mmc_switch_part
 .text.mmc_getcd
                0x00000000402f819c       0x20 drivers/built-in.o
                0x00000000402f819c                mmc_getcd
 .text.mmc_set_clock
                0x00000000402f81bc       0x20 drivers/built-in.o
                0x00000000402f81bc                mmc_set_clock
 .text.mmc_startup
                0x00000000402f81dc      0x768 drivers/built-in.o
 .text.board_mmc_power_init
                0x00000000402f8944        0x2 drivers/built-in.o
                0x00000000402f8944                board_mmc_power_init
 *fill*         0x00000000402f8946        0x2 
 .text.mmc_start_init
                0x00000000402f8948      0x1bc drivers/built-in.o
                0x00000000402f8948                mmc_start_init
 .text.mmc_init
                0x00000000402f8b04       0x9c drivers/built-in.o
                0x00000000402f8b04                mmc_init
 .text.board_mmc_init
                0x00000000402f8ba0        0x6 drivers/built-in.o
                0x00000000402f8ba0                board_mmc_init
 *fill*         0x00000000402f8ba6        0x2 
 .text.mmc_initialize
                0x00000000402f8ba8       0x30 drivers/built-in.o
                0x00000000402f8ba8                mmc_initialize
 .text.mmc_berase
                0x00000000402f8bd8        0x4 drivers/built-in.o
 .text.mmc_bwrite
                0x00000000402f8bdc        0x4 drivers/built-in.o
 .text.find_mmc_device
                0x00000000402f8be0       0x30 drivers/built-in.o
                0x00000000402f8be0                find_mmc_device
 .text.mmc_select_hwpartp
                0x00000000402f8c10       0x36 drivers/built-in.o
 .text.mmc_get_dev
                0x00000000402f8c46       0x1e drivers/built-in.o
 .text.mmc_get_next_devnum
                0x00000000402f8c64       0x10 drivers/built-in.o
                0x00000000402f8c64                mmc_get_next_devnum
 .text.mmc_get_blk_desc
                0x00000000402f8c74        0x4 drivers/built-in.o
                0x00000000402f8c74                mmc_get_blk_desc
 .text.mmc_do_preinit
                0x00000000402f8c78       0x20 drivers/built-in.o
                0x00000000402f8c78                mmc_do_preinit
 .text.mmc_list_init
                0x00000000402f8c98       0x18 drivers/built-in.o
                0x00000000402f8c98                mmc_list_init
 .text.mmc_list_add
                0x00000000402f8cb0       0x14 drivers/built-in.o
                0x00000000402f8cb0                mmc_list_add
 .text.mmc_create
                0x00000000402f8cc4       0x80 drivers/built-in.o
                0x00000000402f8cc4                mmc_create
 .text.mmc_reset_controller_fsm
                0x00000000402f8d44       0x7c drivers/built-in.o
 .text.omap_hsmmc_getwp
                0x00000000402f8dc0       0x10 drivers/built-in.o
 .text.omap_hsmmc_getcd
                0x00000000402f8dd0       0x1a drivers/built-in.o
 *fill*         0x00000000402f8dea        0x2 
 .text.omap_hsmmc_send_cmd
                0x00000000402f8dec      0x2cc drivers/built-in.o
 .text.omap_hsmmc_set_ios
                0x00000000402f90b8      0x184 drivers/built-in.o
 .text.mmc_init_stream
                0x00000000402f923c       0xac drivers/built-in.o
                0x00000000402f923c                mmc_init_stream
 .text.omap_hsmmc_init_setup
                0x00000000402f92e8      0x178 drivers/built-in.o
 .text.omap_mmc_init
                0x00000000402f9460       0xec drivers/built-in.o
                0x00000000402f9460                omap_mmc_init
 .text._serial_putc
                0x00000000402f954c       0x22 drivers/built-in.o
 .text.serial_post_probe
                0x00000000402f956e       0x12 drivers/built-in.o
 .text.serial_pre_remove
                0x00000000402f9580        0x4 drivers/built-in.o
 .text.serial_init
                0x00000000402f9584       0x50 drivers/built-in.o
                0x00000000402f9584                serial_init
 .text.serial_putc
                0x00000000402f95d4       0x12 drivers/built-in.o
                0x00000000402f95d4                serial_putc
 .text.serial_puts
                0x00000000402f95e6       0x1e drivers/built-in.o
                0x00000000402f95e6                serial_puts
 .text.serial_getc
                0x00000000402f9604       0x28 drivers/built-in.o
                0x00000000402f9604                serial_getc
 .text.serial_tstc
                0x00000000402f962c       0x1a drivers/built-in.o
                0x00000000402f962c                serial_tstc
 .text.ns16550_writeb.isra.0
                0x00000000402f9646       0x14 drivers/built-in.o
 .text.NS16550_setbrg
                0x00000000402f965a       0x34 drivers/built-in.o
 .text.ns16550_serial_setbrg
                0x00000000402f968e       0x24 drivers/built-in.o
 .text.ns16550_readb.isra.1
                0x00000000402f96b2       0x14 drivers/built-in.o
 .text.ns16550_serial_pending
                0x00000000402f96c6       0x28 drivers/built-in.o
 .text.ns16550_serial_putc
                0x00000000402f96ee       0x32 drivers/built-in.o
 .text.ns16550_serial_getc
                0x00000000402f9720       0x26 drivers/built-in.o
 .text.NS16550_init
                0x00000000402f9746       0x54 drivers/built-in.o
                0x00000000402f9746                NS16550_init
 .text.ns16550_serial_probe
                0x00000000402f979a       0x20 drivers/built-in.o
                0x00000000402f979a                ns16550_serial_probe
 .text.gpio_to_device
                0x00000000402f97ba       0x48 drivers/built-in.o
 *fill*         0x00000000402f9802        0x2 
 .text.check_reserved
                0x00000000402f9804       0x4c drivers/built-in.o
 .text.gpio_renumber
                0x00000000402f9850       0x46 drivers/built-in.o
 .text.gpio_pre_remove
                0x00000000402f9896       0x12 drivers/built-in.o
 .text.gpio_post_probe
                0x00000000402f98a8       0x24 drivers/built-in.o
 .text.dm_gpio_request
                0x00000000402f98cc       0x56 drivers/built-in.o
                0x00000000402f98cc                dm_gpio_request
 .text.gpio_request
                0x00000000402f9922       0x18 drivers/built-in.o
                0x00000000402f9922                gpio_request
 *fill*         0x00000000402f993a        0x2 
 .text.gpio_direction_input
                0x00000000402f993c       0x2c drivers/built-in.o
                0x00000000402f993c                gpio_direction_input
 .text.gpio_direction_output
                0x00000000402f9968       0x2c drivers/built-in.o
                0x00000000402f9968                gpio_direction_output
 .text.dm_gpio_get_value
                0x00000000402f9994       0x2c drivers/built-in.o
                0x00000000402f9994                dm_gpio_get_value
 .text.gpio_get_value
                0x00000000402f99c0       0x16 drivers/built-in.o
                0x00000000402f99c0                gpio_get_value
 .text.omap_gpio_get_value
                0x00000000402f99d6       0x2c drivers/built-in.o
 .text.omap_gpio_direction_output
                0x00000000402f9a02       0x30 drivers/built-in.o
 .text.omap_gpio_probe
                0x00000000402f9a32       0x28 drivers/built-in.o
 .text.omap_gpio_bind
                0x00000000402f9a5a       0x46 drivers/built-in.o
 .text.omap_gpio_direction_input
                0x00000000402f9aa0       0x1e drivers/built-in.o
 .text.omap_gpio_get_function
                0x00000000402f9abe       0x1e drivers/built-in.o
 .text.omap_gpio_set_value
                0x00000000402f9adc       0x22 drivers/built-in.o
 .text.tps65217_reg_read
                0x00000000402f9afe       0x16 drivers/built-in.o
                0x00000000402f9afe                tps65217_reg_read
 .text.tps65217_reg_write
                0x00000000402f9b14       0x9a drivers/built-in.o
                0x00000000402f9b14                tps65217_reg_write
 .text.tps65217_voltage_update
                0x00000000402f9bae       0x32 drivers/built-in.o
                0x00000000402f9bae                tps65217_voltage_update
 .text.tps65910_set_i2c_control
                0x00000000402f9be0       0x36 drivers/built-in.o
                0x00000000402f9be0                tps65910_set_i2c_control
 .text.tps65910_voltage_update
                0x00000000402f9c16       0x94 drivers/built-in.o
                0x00000000402f9c16                tps65910_voltage_update
 .text.musb_gadget_enable
                0x00000000402f9caa      0x194 drivers/built-in.o
 .text.musb_free_request
                0x00000000402f9e3e        0x2 drivers/built-in.o
                0x00000000402f9e3e                musb_free_request
 .text.musb_gadget_fifo_status
                0x00000000402f9e40       0x26 drivers/built-in.o
 .text.musb_gadget_fifo_flush
                0x00000000402f9e66       0x52 drivers/built-in.o
 .text.musb_gadget_get_frame
                0x00000000402f9eb8        0xe drivers/built-in.o
 .text.musb_gadget_wakeup
                0x00000000402f9ec6        0x4 drivers/built-in.o
 .text.musb_gadget_set_self_powered
                0x00000000402f9eca       0x16 drivers/built-in.o
 .text.musb_gadget_vbus_draw
                0x00000000402f9ee0        0x4 drivers/built-in.o
 .text.txstate  0x00000000402f9ee4       0x70 drivers/built-in.o
 .text.musb_alloc_request
                0x00000000402f9f54       0x22 drivers/built-in.o
                0x00000000402f9f54                musb_alloc_request
 *fill*         0x00000000402f9f76        0x2 
 .text.init_peripheral_ep
                0x00000000402f9f78       0xb0 drivers/built-in.o
 .text.musb_gadget_pullup
                0x00000000402fa028       0x38 drivers/built-in.o
 .text.musb_g_giveback
                0x00000000402fa060       0x32 drivers/built-in.o
                0x00000000402fa060                musb_g_giveback
 .text.rxstate  0x00000000402fa092       0x98 drivers/built-in.o
 .text.musb_gadget_dequeue
                0x00000000402fa12a       0x42 drivers/built-in.o
 .text.musb_gadget_disable
                0x00000000402fa16c       0x6a drivers/built-in.o
 .text.musb_g_tx
                0x00000000402fa1d6       0xe6 drivers/built-in.o
                0x00000000402fa1d6                musb_g_tx
 .text.musb_g_rx
                0x00000000402fa2bc       0x6e drivers/built-in.o
                0x00000000402fa2bc                musb_g_rx
 .text.musb_ep_restart
                0x00000000402fa32a       0x1e drivers/built-in.o
                0x00000000402fa32a                musb_ep_restart
 .text.musb_gadget_set_halt
                0x00000000402fa348       0xb2 drivers/built-in.o
 .text.musb_gadget_queue
                0x00000000402fa3fa       0x72 drivers/built-in.o
 .text.musb_gadget_setup
                0x00000000402fa46c       0x90 drivers/built-in.o
                0x00000000402fa46c                musb_gadget_setup
 .text.musb_g_ep0_enable
                0x00000000402fa4fc        0x6 drivers/built-in.o
 .text.musb_g_ep0_disable
                0x00000000402fa502        0x6 drivers/built-in.o
 .text.musb_g_ep0_halt
                0x00000000402fa508       0x60 drivers/built-in.o
 .text.musb_g_ep0_dequeue
                0x00000000402fa568        0x6 drivers/built-in.o
 .text.ep0_txstate
                0x00000000402fa56e       0x9a drivers/built-in.o
 .text.musb_g_ep0_queue
                0x00000000402fa608       0xb2 drivers/built-in.o
 *fill*         0x00000000402fa6ba        0x2 
 .text.musb_g_ep0_irq
                0x00000000402fa6bc      0x5f0 drivers/built-in.o
                0x00000000402fa6bc                musb_g_ep0_irq
 .text.fifo_setup
                0x00000000402facac      0x100 drivers/built-in.o
 .text.musb_write_fifo
                0x00000000402fadac       0x70 drivers/built-in.o
                0x00000000402fadac                musb_write_fifo
 .text.musb_read_fifo
                0x00000000402fae1c       0x70 drivers/built-in.o
                0x00000000402fae1c                musb_read_fifo
 .text.musb_load_testpacket
                0x00000000402fae8c       0x24 drivers/built-in.o
                0x00000000402fae8c                musb_load_testpacket
 .text.musb_interrupt
                0x00000000402faeb0       0xca drivers/built-in.o
                0x00000000402faeb0                musb_interrupt
 *fill*         0x00000000402faf7a        0x2 
 .text.musb_init_controller
                0x00000000402faf7c      0x444 drivers/built-in.o
                0x00000000402faf7c                musb_init_controller
 .text.musb_register
                0x00000000402fb3c0       0x3c drivers/built-in.o
                0x00000000402fb3c0                musb_register
 .text.musb_h_tx_flush_fifo
                0x00000000402fb3fc       0x40 drivers/built-in.o
 .text.musb_h_ep0_flush_fifo
                0x00000000402fb43c       0x3c drivers/built-in.o
 .text.musb_start_urb
                0x00000000402fb478      0x340 drivers/built-in.o
 .text.musb_advance_schedule
                0x00000000402fb7b8      0x12e drivers/built-in.o
 *fill*         0x00000000402fb8e6        0x2 
 .text.musb_h_ep0_irq
                0x00000000402fb8e8      0x1b8 drivers/built-in.o
                0x00000000402fb8e8                musb_h_ep0_irq
 .text.musb_host_tx
                0x00000000402fbaa0      0x11c drivers/built-in.o
                0x00000000402fbaa0                musb_host_tx
 .text.musb_host_rx
                0x00000000402fbbbc      0x268 drivers/built-in.o
                0x00000000402fbbbc                musb_host_rx
 .text.dsps_musb_enable
                0x00000000402fbe24       0x1c drivers/built-in.o
 .text.dsps_musb_disable
                0x00000000402fbe40        0x2 drivers/built-in.o
 *fill*         0x00000000402fbe42        0x2 
 .text.dsps_musb_init
                0x00000000402fbe44       0x50 drivers/built-in.o
 .text.dsps_musb_exit
                0x00000000402fbe94       0x14 drivers/built-in.o
 .text.dsps_interrupt
                0x00000000402fbea8       0x48 drivers/built-in.o
 .text.hw_watchdog_reset
                0x00000000402fbef0       0x24 drivers/built-in.o
                0x00000000402fbef0                hw_watchdog_reset
 .text.hw_watchdog_disable
                0x00000000402fbf14       0x30 drivers/built-in.o
                0x00000000402fbf14                hw_watchdog_disable
 .text.hw_watchdog_init
                0x00000000402fbf44       0x74 drivers/built-in.o
                0x00000000402fbf44                hw_watchdog_init
 .text.get_desc
                0x00000000402fbfb8       0x3a drivers/built-in.o
 *fill*         0x00000000402fbff2        0x2 
 .text.blk_driver_lookup_type
                0x00000000402fbff4       0x20 drivers/built-in.o
                0x00000000402fbff4                blk_driver_lookup_type
 .text.blk_dselect_hwpart
                0x00000000402fc014       0x26 drivers/built-in.o
                0x00000000402fc014                blk_dselect_hwpart
 *fill*         0x00000000402fc03a        0x2 
 .text.blk_get_devnum_by_typename
                0x00000000402fc03c       0x3c drivers/built-in.o
                0x00000000402fc03c                blk_get_devnum_by_typename
 .text.blk_select_hwpart_devnum
                0x00000000402fc078       0x2a drivers/built-in.o
                0x00000000402fc078                blk_select_hwpart_devnum
 *fill*         0x00000000402fc0a2        0x2 
 .text.downcase
                0x00000000402fc0a4       0x24 fs/built-in.o
 .text.disk_read
                0x00000000402fc0c8       0x30 fs/built-in.o
 .text.mkcksum  0x00000000402fc0f8       0x36 fs/built-in.o
 *fill*         0x00000000402fc12e        0x2 
 .text.disk_write
                0x00000000402fc130       0x50 fs/built-in.o
 .text.flush_dirty_fat_buffer
                0x00000000402fc180       0x60 fs/built-in.o
 .text.get_fatent
                0x00000000402fc1e0       0xf8 fs/built-in.o
 .text.next_dent
                0x00000000402fc2d8       0xac fs/built-in.o
 .text.get_name
                0x00000000402fc384       0x8a fs/built-in.o
 *fill*         0x00000000402fc40e        0x2 
 .text.get_cluster
                0x00000000402fc410       0xf4 fs/built-in.o
 .text.read_bootsectandvi
                0x00000000402fc504       0xa8 fs/built-in.o
 .text.fat_itr_root
                0x00000000402fc5ac       0xec fs/built-in.o
 .text.slot2str
                0x00000000402fc698       0x60 fs/built-in.o
 .text.fat_itr_next
                0x00000000402fc6f8       0xc2 fs/built-in.o
 .text.fat_itr_resolve
                0x00000000402fc7ba       0xe4 fs/built-in.o
 *fill*         0x00000000402fc89e        0x2 
 .text.fat_set_blk_dev
                0x00000000402fc8a0       0x8c fs/built-in.o
                0x00000000402fc8a0                fat_set_blk_dev
 .text.fat_register_device
                0x00000000402fc92c       0x54 fs/built-in.o
                0x00000000402fc92c                fat_register_device
 .text.file_fat_read_at
                0x00000000402fc980      0x2a4 fs/built-in.o
                0x00000000402fc980                file_fat_read_at
 .text.file_fat_read
                0x00000000402fcc24       0x22 fs/built-in.o
                0x00000000402fcc24                file_fat_read
 *fill*         0x00000000402fcc46        0x2 
 .text.get_fs   0x00000000402fcc48        0x8 fs/built-in.o
                0x00000000402fcc48                get_fs
 .text.ext4fs_free_node
                0x00000000402fcc50        0x2 fs/built-in.o
                0x00000000402fcc50                ext4fs_free_node
 *fill*         0x00000000402fcc52        0x2 
 .text.ext4fs_read_file
                0x00000000402fcc54      0x278 fs/built-in.o
                0x00000000402fcc54                ext4fs_read_file
 .text.ext4fs_read
                0x00000000402fcecc       0x38 fs/built-in.o
                0x00000000402fcecc                ext4fs_read
 .text.ext4fs_bg_get_inode_table_id
                0x00000000402fcf04       0x1a fs/built-in.o
                0x00000000402fcf04                ext4fs_bg_get_inode_table_id
 .text.ext4fs_read_inode
                0x00000000402fcf1e       0xc6 fs/built-in.o
                0x00000000402fcf1e                ext4fs_read_inode
 .text.read_allocated_block
                0x00000000402fcfe4      0x5a8 fs/built-in.o
                0x00000000402fcfe4                read_allocated_block
 .text.ext4fs_iterate_dir
                0x00000000402fd58c      0x1dc fs/built-in.o
                0x00000000402fd58c                ext4fs_iterate_dir
 .text.ext4fs_find_file1
                0x00000000402fd768      0x1a8 fs/built-in.o
 .text.ext4fs_find_file
                0x00000000402fd910       0x40 fs/built-in.o
                0x00000000402fd910                ext4fs_find_file
 .text.ext4fs_open
                0x00000000402fd950       0x64 fs/built-in.o
                0x00000000402fd950                ext4fs_open
 .text.ext4fs_mount
                0x00000000402fd9b4       0x88 fs/built-in.o
                0x00000000402fd9b4                ext4fs_mount
 .text.ext4fs_set_blk_dev
                0x00000000402fda3c       0x54 fs/built-in.o
                0x00000000402fda3c                ext4fs_set_blk_dev
 .text.ext4fs_devread
                0x00000000402fda90       0x28 fs/built-in.o
                0x00000000402fda90                ext4fs_devread
 .text.ext4_read_superblock
                0x00000000402fdab8       0x28 fs/built-in.o
                0x00000000402fdab8                ext4_read_superblock
 .text.fs_devread
                0x00000000402fdae0      0x170 fs/built-in.o
                0x00000000402fdae0                fs_devread
 .text.__udivsi3
                0x00000000402fdc50       0x9c arch/arm/lib/lib.a(lib1funcs.o)
                0x00000000402fdc50                __udivsi3
                0x00000000402fdc50                __aeabi_uidiv
 .text.__divsi3
                0x00000000402fdcec       0xcc arch/arm/lib/lib.a(lib1funcs.o)
                0x00000000402fdcec                __aeabi_idiv
                0x00000000402fdcec                __divsi3
 .text.__aeabi_uidivmod
                0x00000000402fddb8       0x30 arch/arm/lib/lib.a(lib1funcs.o)
                0x00000000402fddb8                __aeabi_uidivmod
                0x00000000402fddd0                __aeabi_idivmod
 .text.Ldiv0    0x00000000402fdde8       0x10 arch/arm/lib/lib.a(lib1funcs.o)
 .text.__div0   0x00000000402fddf8        0x4 arch/arm/lib/lib.a(div0.o)
                0x00000000402fddf8                __div0
 *fill*         0x00000000402fddfc        0x4 
 .text.__div0.__stub
                0x00000000402fde00        0x4 linker stubs

.glue_7         0x00000000402fde04        0x0
 .glue_7        0x00000000402fde04        0x0 linker stubs

.glue_7t        0x00000000402fde04        0x0
 .glue_7t       0x00000000402fde04        0x0 linker stubs

.vfp11_veneer   0x00000000402fde04        0x0
 .vfp11_veneer  0x00000000402fde04        0x0 linker stubs

.v4_bx          0x00000000402fde04        0x0
 .v4_bx         0x00000000402fde04        0x0 linker stubs

.iplt           0x00000000402fde04        0x0
 .iplt          0x00000000402fde04        0x0 arch/arm/cpu/armv7/start.o
                0x00000000402fde04                . = ALIGN (0x4)

.rodata         0x00000000402fde04     0x4150
 *(SORT_BY_ALIGNMENT(.rodata*))
 .rodata        0x00000000402fde04       0x84 arch/arm/mach-omap2/built-in.o
 .rodata.cmwkup
                0x00000000402fde88        0x4 arch/arm/mach-omap2/built-in.o
                0x00000000402fde88                cmwkup
 .rodata.dpll_core_1000MHz
                0x00000000402fde8c       0x40 arch/arm/mach-omap2/built-in.o
                0x00000000402fde8c                dpll_core_1000MHz
 .rodata.dpll_core_regs
                0x00000000402fdecc       0x24 arch/arm/mach-omap2/built-in.o
                0x00000000402fdecc                dpll_core_regs
 .rodata.dpll_ddr2_266MHz
                0x00000000402fdef0       0x40 arch/arm/mach-omap2/built-in.o
                0x00000000402fdef0                dpll_ddr2_266MHz
 .rodata.dpll_ddr3_303MHz
                0x00000000402fdf30       0x40 arch/arm/mach-omap2/built-in.o
                0x00000000402fdf30                dpll_ddr3_303MHz
 .rodata.dpll_ddr3_400MHz
                0x00000000402fdf70       0x40 arch/arm/mach-omap2/built-in.o
                0x00000000402fdf70                dpll_ddr3_400MHz
 .rodata.dpll_ddr_regs
                0x00000000402fdfb0       0x24 arch/arm/mach-omap2/built-in.o
                0x00000000402fdfb0                dpll_ddr_regs
 .rodata.dpll_mpu_opp
                0x00000000402fdfd4      0x180 arch/arm/mach-omap2/built-in.o
                0x00000000402fdfd4                dpll_mpu_opp
 .rodata.dpll_mpu_regs
                0x00000000402fe154       0x24 arch/arm/mach-omap2/built-in.o
                0x00000000402fe154                dpll_mpu_regs
 .rodata.dpll_per_192MHz
                0x00000000402fe178       0x40 arch/arm/mach-omap2/built-in.o
                0x00000000402fe178                dpll_per_192MHz
 .rodata.dpll_per_regs
                0x00000000402fe1b8       0x24 arch/arm/mach-omap2/built-in.o
                0x00000000402fe1b8                dpll_per_regs
 .rodata.ddr_cmd_reg
                0x00000000402fe1dc        0x8 arch/arm/mach-omap2/built-in.o
 .rodata.ddr_data_reg
                0x00000000402fe1e4        0x8 arch/arm/mach-omap2/built-in.o
 .rodata.emif_reg
                0x00000000402fe1ec        0x8 arch/arm/mach-omap2/built-in.o
 .rodata.vtpreg
                0x00000000402fe1f4        0x8 arch/arm/mach-omap2/built-in.o
 .rodata.am33xx_gpio
                0x00000000402fe1fc       0x30 arch/arm/mach-omap2/built-in.o
 .rodata.am33xx_serial
                0x00000000402fe22c       0x78 arch/arm/mach-omap2/built-in.o
 .rodata.am33xx_ctrl
                0x00000000402fe2a4      0x1c8 arch/arm/mach-omap2/built-in.o
                0x00000000402fe2a4                am33xx_ctrl
 .rodata.am335x_mmc0_platdata
                0x00000000402fe46c       0x34 board/ti/am335x/built-in.o
 .rodata.am335x_mmc1_platdata
                0x00000000402fe4a0       0x34 board/ti/am335x/built-in.o
 .rodata.ddr2_cmd_ctrl_data
                0x00000000402fe4d4       0x30 board/ti/am335x/built-in.o
 .rodata.ddr2_data
                0x00000000402fe504       0x18 board/ti/am335x/built-in.o
 .rodata.ddr2_emif_reg_data
                0x00000000402fe51c       0x7c board/ti/am335x/built-in.o
 .rodata.ddr2_evm_emif_reg_data
                0x00000000402fe598       0x7c board/ti/am335x/built-in.o
 .rodata.ddr3_beagleblack_cmd_ctrl_data
                0x00000000402fe614       0x30 board/ti/am335x/built-in.o
 .rodata.ddr3_beagleblack_data
                0x00000000402fe644       0x18 board/ti/am335x/built-in.o
 .rodata.ddr3_cmd_ctrl_data
                0x00000000402fe65c       0x30 board/ti/am335x/built-in.o
 .rodata.ddr3_data
                0x00000000402fe68c       0x18 board/ti/am335x/built-in.o
 .rodata.ddr3_evm_cmd_ctrl_data
                0x00000000402fe6a4       0x30 board/ti/am335x/built-in.o
 .rodata.ddr3_evm_data
                0x00000000402fe6d4       0x18 board/ti/am335x/built-in.o
 .rodata.ddr3_icev2_cmd_ctrl_data
                0x00000000402fe6ec       0x30 board/ti/am335x/built-in.o
 .rodata.ddr3_icev2_data
                0x00000000402fe71c       0x18 board/ti/am335x/built-in.o
 .rodata.ioregs
                0x00000000402fe734       0x20 board/ti/am335x/built-in.o
                0x00000000402fe734                ioregs
 .rodata.ioregs_bonelt
                0x00000000402fe754       0x20 board/ti/am335x/built-in.o
                0x00000000402fe754                ioregs_bonelt
 .rodata.ioregs_evm15
                0x00000000402fe774       0x20 board/ti/am335x/built-in.o
                0x00000000402fe774                ioregs_evm15
 .rodata.ioregs_evmsk
                0x00000000402fe794       0x20 board/ti/am335x/built-in.o
                0x00000000402fe794                ioregs_evmsk
 .rodata.CSWTCH.32
                0x00000000402fe7b4       0x20 common/built-in.o
 .rodata.env_locations
                0x00000000402fe7d4        0x8 env/built-in.o
 .rodata.env_flags_varaccess_mask
                0x00000000402fe7dc       0x10 env/built-in.o
 .rodata.fdt_errtable
                0x00000000402fe7ec       0x48 lib/built-in.o
 .rodata.crc_table
                0x00000000402fe834      0x400 lib/built-in.o
 .rodata.CSWTCH.39
                0x00000000402fec34       0x20 disk/built-in.o
 .rodata        0x00000000402fec54        0x8 drivers/built-in.o
 .rodata.root_info
                0x00000000402fec5c        0x8 drivers/built-in.o
 .rodata.ext_csd_bus_width
                0x00000000402fec64       0x3c drivers/built-in.o
 .rodata.fbase  0x00000000402feca0       0x10 drivers/built-in.o
 .rodata.freqs.9667
                0x00000000402fecb0       0x30 drivers/built-in.o
 .rodata.mmc_modes_by_pref
                0x00000000402fece0       0x20 drivers/built-in.o
 .rodata.mmc_versions.9962
                0x00000000402fed00       0x24 drivers/built-in.o
 .rodata.sd_modes_by_pref
                0x00000000402fed24       0x10 drivers/built-in.o
 .rodata.omap_hsmmc_ops
                0x00000000402fed34       0x14 drivers/built-in.o
 .rodata.ns16550_serial_ops
                0x00000000402fed48       0x14 drivers/built-in.o
                0x00000000402fed48                ns16550_serial_ops
 .rodata.gpio_omap_ops
                0x00000000402fed5c       0x28 drivers/built-in.o
 .rodata.omap_gpio_ids
                0x00000000402fed84       0x20 drivers/built-in.o
 .rodata.musb_ep_ops
                0x00000000402feda4       0x28 drivers/built-in.o
 .rodata.musb_gadget_operations
                0x00000000402fedcc       0x24 drivers/built-in.o
 .rodata.CSWTCH.18
                0x00000000402fedf0       0x1c drivers/built-in.o
 .rodata.musb_g_ep0_ops
                0x00000000402fee0c       0x28 drivers/built-in.o
                0x00000000402fee0c                musb_g_ep0_ops
 .rodata.crc16_tab
                0x00000000402fee34      0x200 lib/built-in.o
 .rodata.do_enable_clocks.str1.1
                0x00000000402ff034       0x2a arch/arm/mach-omap2/built-in.o
 .rodata.do_setup_dpll.str1.1
                0x00000000402ff05e       0x3a arch/arm/mach-omap2/built-in.o
 .rodata.str1.1
                0x00000000402ff098       0x3b arch/arm/mach-omap2/built-in.o
 .rodata.config_sdram_emif4d5.str1.1
                0x00000000402ff0d3       0x2a arch/arm/mach-omap2/built-in.o
 .rodata.do_reset.str1.1
                0x00000000402ff0fd        0xf arch/arm/lib/built-in.o
 .rodata.enable_board_pin_mux.str1.1
                0x00000000402ff10c       0x73 board/ti/am335x/built-in.o
                                         0x75 (size before relaxing)
 .rodata.bone_not_connected_to_ac_power.part.0.str1.1
                0x00000000402ff17f       0x27 board/ti/am335x/built-in.o
 .rodata.do_board_detect.str1.1
                0x00000000402ff1a6       0x1b board/ti/am335x/built-in.o
 .rodata.get_dpll_ddr_params.str1.1
                0x00000000402ff1c1        0x4 board/ti/am335x/built-in.o
                                         0x33 (size before relaxing)
 .rodata.get_dpll_mpu_params.str1.1
                0x00000000402ff1c5        0x9 board/ti/am335x/built-in.o
 .rodata.scale_vcores.str1.1
                0x00000000402ff1c5       0x47 board/ti/am335x/built-in.o
 .rodata.sdram_init.str1.1
                0x00000000402ff20c        0xb board/ti/am335x/built-in.o
 .rodata.spl_start_uboot.str1.1
                0x00000000402ff217        0x8 board/ti/am335x/built-in.o
 .rodata.str1.1
                0x00000000402ff21f        0xb board/ti/am335x/built-in.o
 .rodata.ti_i2c_eeprom_am_get.str1.1
                0x00000000402ff22a        0x5 board/ti/common/built-in.o
 .rodata.board_init_r.str1.1
                0x00000000402ff22a       0x62 common/spl/built-in.o
 .rodata.preloader_console_init.str1.1
                0x00000000402ff28c       0x34 common/spl/built-in.o
 .rodata.spl_fixup_fdt.str1.1
                0x00000000402ff2c0       0x51 common/spl/built-in.o
 .rodata.spl_parse_image_header.str1.1
                0x00000000402ff311        0x6 common/spl/built-in.o
 .rodata.spl_set_header_raw_uboot.str1.1
                0x00000000402ff317        0x7 common/spl/built-in.o
 .rodata.spl_ymodem_load_image.str1.1
                0x00000000402ff31e       0x27 common/spl/built-in.o
 .rodata.str1.1
                0x00000000402ff345       0x16 common/spl/built-in.o
 .rodata.mmc_load_image_raw_sector.str1.1
                0x00000000402ff35b       0x31 common/spl/built-in.o
 .rodata.spl_mmc_load_image.str1.1
                0x00000000402ff38c      0x14d common/spl/built-in.o
 .rodata.__func__.7951
                0x00000000402ff4d9       0x18 common/spl/built-in.o
 .rodata.__func__.7971
                0x00000000402ff4f1       0x13 common/spl/built-in.o
 .rodata.__func__.7980
                0x00000000402ff504       0x16 common/spl/built-in.o
 .rodata.spl_load_image_fat.str1.1
                0x00000000402ff51a       0x41 common/spl/built-in.o
 .rodata.spl_load_image_fat_os.str1.1
                0x00000000402ff55b      0x11c common/spl/built-in.o
 .rodata.__func__.7493
                0x00000000402ff677       0x13 common/spl/built-in.o
 .rodata.__func__.7505
                0x00000000402ff68a       0x16 common/spl/built-in.o
 .rodata.spl_load_image_ext.str1.1
                0x00000000402ff6a0       0x94 common/spl/built-in.o
                                         0xba (size before relaxing)
 .rodata.spl_load_image_ext_os.str1.1
                0x00000000402ff734      0x11c common/spl/built-in.o
 .rodata.str1.1
                0x00000000402ff734      0x71e common/built-in.o
                                        0x751 (size before relaxing)
 .rodata.xyzModem_error.str1.1
                0x00000000402ffe52        0xe common/built-in.o
 .rodata.xyzModem_stream_close.str1.1
                0x00000000402ffe60       0x47 common/built-in.o
                                         0x4b (size before relaxing)
 .rodata.xyzModem_stream_open.str1.1
                0x00000000402ffea7       0x47 common/built-in.o
                                          0x2 (size before relaxing)
 .rodata.__FUNCTION__.8897
                0x00000000402ffea7       0x17 common/built-in.o
 .rodata.__func__.8773
                0x00000000402ffebe       0x18 common/built-in.o
 .rodata.fdt_find_or_add_subnode.str1.1
                0x00000000402ffed6        0xc common/built-in.o
 .rodata.fdt_fixup_memory_banks.str1.1
                0x00000000402ffee2       0x8c common/built-in.o
                                         0x94 (size before relaxing)
 .rodata.env_get_f.str1.1
                0x00000000402fff6e       0x30 cmd/built-in.o
 .rodata        0x00000000402fff9e        0x3 env/built-in.o
 .rodata.default_environment
                0x00000000402fffa1       0xe3 env/built-in.o
                0x00000000402fffa1                default_environment
 .rodata.env_import.str1.1
                0x0000000040300084       0x3f env/built-in.o
 .rodata.env_import_redund.str1.1
                0x00000000403000c3       0x8e env/built-in.o
 .rodata.set_default_env.str1.1
                0x0000000040300151       0x55 env/built-in.o
 .rodata.env_load.str1.1
                0x00000000403001a6       0x31 env/built-in.o
 .rodata.regex_callback.str1.1
                0x00000000403001d7       0x20 env/built-in.o
 .rodata.env_flags_init.str1.1
                0x00000000403001f7       0x57 env/built-in.o
 .rodata.env_flags_parse_varaccess.str1.1
                0x000000004030024e       0x3d env/built-in.o
 .rodata.env_flags_parse_vartype.str1.1
                0x000000004030028b       0x34 env/built-in.o
 .rodata.env_flags_validate.str1.1
                0x00000000403002bf       0xb2 env/built-in.o
                                         0xb3 (size before relaxing)
 .rodata.env_flags_varaccess_rep
                0x0000000040300371        0x5 env/built-in.o
 .rodata.env_flags_vartype_rep
                0x0000000040300376        0x7 env/built-in.o
 .rodata.env_callback_init.str1.1
                0x000000004030037d      0x110 env/built-in.o
 .rodata.env_mmc_load.str1.1
                0x000000004030048d       0x5e env/built-in.o
 .rodata.str1.1
                0x00000000403004eb        0x4 env/built-in.o
                                          0x8 (size before relaxing)
 .rodata.env_fat_load.str1.1
                0x00000000403004ef       0x4e env/built-in.o
                                         0x52 (size before relaxing)
 .rodata        0x000000004030053d       0x20 lib/built-in.o
 .rodata.fdt_strerror.str1.1
                0x000000004030055d       0x31 lib/built-in.o
 .rodata.str1.1
                0x000000004030058e      0x12d lib/built-in.o
 .rodata.fdt_address_cells.str1.1
                0x00000000403006bb        0xf lib/built-in.o
 .rodata.fdt_size_cells.str1.1
                0x00000000403006ca        0xc lib/built-in.o
 .rodata.himport_r.str1.1
                0x00000000403006d6       0x99 lib/built-in.o
 .rodata._ctype
                0x000000004030076f      0x100 lib/built-in.o
                0x000000004030076f                _ctype
 .rodata.hang.str1.1
                0x000000004030086f       0x2a lib/built-in.o
 .rodata.compile.str1.1
                0x0000000040300899       0x4a lib/built-in.o
 .rodata.emit.str1.1
                0x00000000403008e3       0x1f lib/built-in.o
 .rodata.match.str1.1
                0x0000000040300902       0x18 lib/built-in.o
 .rodata.quantifier.str1.1
                0x000000004030091a       0x17 lib/built-in.o
 .rodata.store_char_in_data.str1.1
                0x0000000040300931       0x1f lib/built-in.o
 .rodata.uuid_bin_to_str.str1.1
                0x0000000040300950       0x1f lib/built-in.o
                                          0x5 (size before relaxing)
 .rodata.blk_get_device_by_str.str1.1
                0x0000000040300950       0x6a disk/built-in.o
 .rodata.blk_get_device_part_str.str1.1
                0x00000000403009ba      0x109 disk/built-in.o
 .rodata.part_get_info_whole_disk.str1.1
                0x0000000040300ac3        0xb disk/built-in.o
                                         0x12 (size before relaxing)
 .rodata.part_set_generic_name.str1.1
                0x0000000040300ace        0xa disk/built-in.o
 .rodata.str1.1
                0x0000000040300ad8       0x1b disk/built-in.o
                                         0x1e (size before relaxing)
 .rodata.part_get_info_extended.str1.1
                0x0000000040300af3        0xa disk/built-in.o
                                         0x11 (size before relaxing)
 .rodata.print_partition_extended.str1.1
                0x0000000040300afd       0x83 disk/built-in.o
                                         0x84 (size before relaxing)
 .rodata.test_block_type.str1.1
                0x0000000040300b80        0x6 disk/built-in.o
                                          0xa (size before relaxing)
 .rodata.__func__.8526
                0x0000000040300b86       0x12 disk/built-in.o
 .rodata.__func__.8668
                0x0000000040300b98        0xd disk/built-in.o
 .rodata.__func__.8680
                0x0000000040300ba5       0x17 disk/built-in.o
 .rodata.__func__.8685
                0x0000000040300bbc        0xd disk/built-in.o
 .rodata.is_gpt_valid.str1.1
                0x0000000040300bc9       0xea disk/built-in.o
 .rodata.part_get_info_efi.str1.1
                0x0000000040300cb3       0x6c disk/built-in.o
                                         0x76 (size before relaxing)
 .rodata.validate_gpt_entries.str1.1
                0x0000000040300d1f       0x40 disk/built-in.o
 .rodata.validate_gpt_header.str1.1
                0x0000000040300d5f       0xe1 disk/built-in.o
 .rodata.str1.1
                0x0000000040300e40       0x8a drivers/built-in.o
                                         0xcd (size before relaxing)
 .rodata.i2c_get_adapter.str1.1
                0x0000000040300eca       0x2d drivers/built-in.o
 .rodata.__func__.9789
                0x0000000040300ef7       0x14 drivers/built-in.o
 .rodata.__omap24_i2c_setspeed.str1.1
                0x0000000040300f0b       0x4c drivers/built-in.o
 .rodata.omap24_get_base.isra.0.str1.1
                0x0000000040300f57       0x14 drivers/built-in.o
 .rodata.omap24_i2c_init.str1.1
                0x0000000040300f6b       0x45 drivers/built-in.o
 .rodata.omap24_i2c_probe.str1.1
                0x0000000040300fb0       0x3e drivers/built-in.o
 .rodata.omap24_i2c_read.str1.1
                0x0000000040300fee      0x15c drivers/built-in.o
 .rodata.omap24_i2c_setspeed.str1.1
                0x000000004030114a       0x1a drivers/built-in.o
 .rodata.omap24_i2c_write.str1.1
                0x0000000040301164      0x1d6 drivers/built-in.o
 .rodata.wait_for_bb.str1.1
                0x000000004030133a       0x27 drivers/built-in.o
 .rodata.wait_for_event.str1.1
                0x0000000040301361       0x61 drivers/built-in.o
 .rodata.mmc_bread.str1.1
                0x00000000403013c2       0x47 drivers/built-in.o
 .rodata.mmc_send_status.str1.1
                0x0000000040301409       0x32 drivers/built-in.o
 .rodata.mmc_start_init.str1.1
                0x000000004030143b       0x3f drivers/built-in.o
 .rodata.mmc_startup.str1.1
                0x000000004030147a       0x2c drivers/built-in.o
 .rodata.multipliers
                0x00000000403014a6       0x10 drivers/built-in.o
 .rodata.find_mmc_device.str1.1
                0x00000000403014b6       0x19 drivers/built-in.o
 .rodata.__func__.10491
                0x00000000403014cf       0x10 drivers/built-in.o
 .rodata.__func__.10531
                0x00000000403014df       0x16 drivers/built-in.o
 .rodata.__func__.10593
                0x00000000403014f5       0x19 drivers/built-in.o
 .rodata.__func__.10609
                0x000000004030150e       0x14 drivers/built-in.o
 .rodata.__func__.10657
                0x0000000040301522        0xe drivers/built-in.o
 .rodata.__func__.10717
                0x0000000040301530       0x15 drivers/built-in.o
 .rodata.mmc_init_stream.str1.1
                0x0000000040301545       0x3d drivers/built-in.o
 .rodata.mmc_reset_controller_fsm.str1.1
                0x0000000040301582       0x2d drivers/built-in.o
 .rodata.omap_hsmmc_init_setup.str1.1
                0x00000000403015af       0x28 drivers/built-in.o
 .rodata.omap_hsmmc_send_cmd.str1.1
                0x00000000403015d7       0x9d drivers/built-in.o
 .rodata.omap_hsmmc_set_ios.str1.1
                0x0000000040301674       0x1f drivers/built-in.o
 .rodata.omap_mmc_init.str1.1
                0x0000000040301693       0x1a drivers/built-in.o
 .rodata.serial_init.str1.1
                0x00000000403016ad       0x17 drivers/built-in.o
 .rodata.check_reserved.str1.1
                0x00000000403016c4       0x27 drivers/built-in.o
                                         0x28 (size before relaxing)
 .rodata.dm_gpio_get_value.str1.1
                0x00000000403016eb        0xa drivers/built-in.o
 .rodata.gpio_direction_input.str1.1
                0x00000000403016f5        0xa drivers/built-in.o
 .rodata.gpio_direction_output.str1.1
                0x00000000403016ff        0xb drivers/built-in.o
 .rodata.init_peripheral_ep.str1.1
                0x000000004030170a        0x7 drivers/built-in.o
                                          0xf (size before relaxing)
 .rodata.__func__.11154
                0x0000000040301711        0xf drivers/built-in.o
 .rodata.musb_g_ep0_irq.str1.1
                0x0000000040301720       0xb1 drivers/built-in.o
 .rodata.__func__.11025
                0x00000000403017d1       0x12 drivers/built-in.o
 .rodata.musb_driver_name
                0x00000000403017e3        0xa drivers/built-in.o
                0x00000000403017e3                musb_driver_name
 .rodata.musb_init_controller.str1.1
                0x00000000403017ed       0xd5 drivers/built-in.o
                                         0xd9 (size before relaxing)
 .rodata.musb_test_packet
                0x00000000403018c2       0x35 drivers/built-in.o
 .rodata.musb_register.str1.1
                0x00000000403018f7       0x1f drivers/built-in.o
 .rodata.__func__.11006
                0x0000000040301916        0xf drivers/built-in.o
 .rodata.__func__.11047
                0x0000000040301925       0x10 drivers/built-in.o
 .rodata.__func__.11070
                0x0000000040301935       0x14 drivers/built-in.o
 .rodata.__func__.11084
                0x0000000040301949        0xf drivers/built-in.o
 .rodata.__func__.11132
                0x0000000040301958        0xd drivers/built-in.o
 .rodata.musb_h_ep0_irq.str1.1
                0x0000000040301965       0x34 drivers/built-in.o
 .rodata.musb_h_tx_flush_fifo.str1.1
                0x0000000040301999       0x2b drivers/built-in.o
 .rodata.musb_host_rx.str1.1
                0x00000000403019c4       0x2f drivers/built-in.o
 .rodata.musb_start_urb.str1.1
                0x00000000403019f3       0x48 drivers/built-in.o
 .rodata.disk_write.str1.1
                0x0000000040301a3b       0x18 fs/built-in.o
 .rodata.do_fat_write.str1.1
                0x0000000040301a53       0xd6 fs/built-in.o
 .rodata.fat_itr_root.str1.1
                0x0000000040301b29       0x33 fs/built-in.o
 .rodata.fat_register_device.str1.1
                0x0000000040301b5c       0x2b fs/built-in.o
 .rodata.fat_set_blk_dev.str1.1
                0x0000000040301b87        0x3 fs/built-in.o
                                          0xd (size before relaxing)
 .rodata.file_fat_read_at.str1.1
                0x0000000040301b8a       0x17 fs/built-in.o
 .rodata.get_cluster.str1.1
                0x0000000040301ba1       0x25 fs/built-in.o
 .rodata.get_fatent.str1.1
                0x0000000040301bc6       0x22 fs/built-in.o
 .rodata.read_bootsectandvi.str1.1
                0x0000000040301be8       0x1b fs/built-in.o
 .rodata.ext4fs_iterate_dir.str1.1
                0x0000000040301c03       0x4a fs/built-in.o
 .rodata.ext4fs_mount.str1.1
                0x0000000040301c4d       0x24 fs/built-in.o
 .rodata.read_allocated_block.str1.1
                0x0000000040301c71      0x240 fs/built-in.o
 .rodata.__func__.7209
                0x0000000040301eb1        0xb fs/built-in.o
 .rodata.fs_devread.str1.1
                0x0000000040301ebc       0x98 fs/built-in.o

.rel.dyn        0x0000000040301f54        0x0
 .rel.iplt      0x0000000040301f54        0x0 arch/arm/cpu/armv7/start.o
                0x0000000040301f54                . = ALIGN (0x4)

.data           0x0000000040301f54      0x811
 *(SORT_BY_ALIGNMENT(.data*))
 .data.dpll_mpu_opp100
                0x0000000040301f54       0x10 arch/arm/mach-omap2/built-in.o
                0x0000000040301f54                dpll_mpu_opp100
 .data.cstat    0x0000000040301f64        0x4 arch/arm/mach-omap2/built-in.o
                0x0000000040301f64                cstat
 .data.musb_config
                0x0000000040301f68       0x18 arch/arm/mach-omap2/built-in.o
 .data.otg0_board_data
                0x0000000040301f80       0x14 arch/arm/mach-omap2/built-in.o
                0x0000000040301f80                otg0_board_data
 .data.otg0_plat
                0x0000000040301f94       0x20 arch/arm/mach-omap2/built-in.o
 .data.otg1_board_data
                0x0000000040301fb4       0x14 arch/arm/mach-omap2/built-in.o
                0x0000000040301fb4                otg1_board_data
 .data.otg1_plat
                0x0000000040301fc8       0x20 arch/arm/mach-omap2/built-in.o
 .data.ctrl     0x0000000040301fe8        0x4 arch/arm/mach-omap2/built-in.o
                0x0000000040301fe8                ctrl
 .data.gpio0_18_pin_mux
                0x0000000040301fec       0x10 board/ti/am335x/built-in.o
 .data.gpio0_7_pin_mux
                0x0000000040301ffc       0x10 board/ti/am335x/built-in.o
 .data.i2c0_pin_mux
                0x000000004030200c       0x18 board/ti/am335x/built-in.o
 .data.i2c1_pin_mux
                0x0000000040302024       0x18 board/ti/am335x/built-in.o
 .data.mii1_pin_mux
                0x000000004030203c       0x80 board/ti/am335x/built-in.o
 .data.mmc0_no_cd_pin_mux
                0x00000000403020bc       0x40 board/ti/am335x/built-in.o
 .data.mmc0_pin_mux
                0x00000000403020fc       0x48 board/ti/am335x/built-in.o
 .data.mmc0_pin_mux_sk_evm
                0x0000000040302144       0x40 board/ti/am335x/built-in.o
 .data.mmc1_pin_mux
                0x0000000040302184       0x48 board/ti/am335x/built-in.o
 .data.rgmii1_pin_mux
                0x00000000403021cc       0x78 board/ti/am335x/built-in.o
 .data.rmii1_pin_mux
                0x0000000040302244       0x58 board/ti/am335x/built-in.o
 .data.spi0_pin_mux
                0x000000004030229c       0x28 board/ti/am335x/built-in.o
 .data.uart0_pin_mux
                0x00000000403022c4       0x18 board/ti/am335x/built-in.o
 .data.uart3_icev2_pin_mux
                0x00000000403022dc       0x18 board/ti/am335x/built-in.o
 .data.ddr3_beagleblack_emif_reg_data
                0x00000000403022f4       0x7c board/ti/am335x/built-in.o
 .data.ddr3_emif_reg_data
                0x0000000040302370       0x7c board/ti/am335x/built-in.o
 .data.ddr3_evm_emif_reg_data
                0x00000000403023ec       0x7c board/ti/am335x/built-in.o
 .data.ddr3_icev2_emif_reg_data
                0x0000000040302468       0x7c board/ti/am335x/built-in.o
 .data          0x00000000403024e4       0x50 common/spl/built-in.o
 .data.env_htab
                0x0000000040302534       0x10 env/built-in.o
                0x0000000040302534                env_htab
 .data.first_call
                0x0000000040302544        0x8 env/built-in.o
 .data.cur_dev_num
                0x000000004030254c        0x4 drivers/built-in.o
 .data.musb_dsps_ops
                0x0000000040302550       0x24 drivers/built-in.o
                0x0000000040302550                musb_dsps_ops
 .data.wdt_trgr_pattern
                0x0000000040302574        0x4 drivers/built-in.o
 .data.ext4fs_indir1_blkno
                0x0000000040302578        0x4 fs/built-in.o
                0x0000000040302578                ext4fs_indir1_blkno
 .data.ext4fs_indir2_blkno
                0x000000004030257c        0x4 fs/built-in.o
                0x000000004030257c                ext4fs_indir2_blkno
 .data.ext4fs_indir3_blkno
                0x0000000040302580        0x4 fs/built-in.o
                0x0000000040302580                ext4fs_indir3_blkno
 .data.ep0_cfg  0x0000000040302584        0x6 drivers/built-in.o
 .data.fifo_mode
                0x000000004030258a        0x2 drivers/built-in.o
 .data.mode_0_cfg
                0x000000004030258c       0x1e drivers/built-in.o
 .data.mode_1_cfg
                0x00000000403025aa       0x1e drivers/built-in.o
 .data.mode_2_cfg
                0x00000000403025c8       0x24 drivers/built-in.o
 .data.mode_3_cfg
                0x00000000403025ec       0x24 drivers/built-in.o
 .data.mode_4_cfg
                0x0000000040302610       0xa2 drivers/built-in.o
 .data.mode_5_cfg
                0x00000000403026b2       0xa2 drivers/built-in.o
 .data.first_time.12591
                0x0000000040302754        0x1 board/ti/am335x/built-in.o
 .data.system_guid
                0x0000000040302755       0x10 disk/built-in.o

.igot.plt       0x0000000040302768        0x0
 .igot.plt      0x0000000040302768        0x0 arch/arm/cpu/armv7/start.o
                0x0000000040302768                . = ALIGN (0x4)

.u_boot_list    0x0000000040302768      0x328
 *(SORT_BY_NAME(.u_boot_list*))
 .u_boot_list_2_blk_driver_1
                0x0000000040302768        0x0 drivers/built-in.o
 .u_boot_list_2_blk_driver_2_mmc
                0x0000000040302768       0x18 drivers/built-in.o
                0x0000000040302768                _u_boot_list_2_blk_driver_2_mmc
 .u_boot_list_2_blk_driver_3
                0x0000000040302780        0x0 drivers/built-in.o
 .u_boot_list_2_cmd_1
                0x0000000040302780        0x0 common/built-in.o
 .u_boot_list_2_cmd_3
                0x0000000040302780        0x0 common/built-in.o
 .u_boot_list_2_driver_1
                0x0000000040302780        0x0 drivers/built-in.o
 .u_boot_list_2_driver_2_gpio_omap
                0x0000000040302780       0x44 drivers/built-in.o
                0x0000000040302780                _u_boot_list_2_driver_2_gpio_omap
 .u_boot_list_2_driver_2_ns16550_serial
                0x00000000403027c4       0x44 drivers/built-in.o
                0x00000000403027c4                _u_boot_list_2_driver_2_ns16550_serial
 .u_boot_list_2_driver_2_root_driver
                0x0000000040302808       0x44 drivers/built-in.o
                0x0000000040302808                _u_boot_list_2_driver_2_root_driver
 .u_boot_list_2_driver_3
                0x000000004030284c        0x0 drivers/built-in.o
 .u_boot_list_2_driver_info_1
                0x000000004030284c        0x0 drivers/built-in.o
 .u_boot_list_2_driver_info_2_am335x_mmc0
                0x000000004030284c        0x8 board/ti/am335x/built-in.o
                0x000000004030284c                _u_boot_list_2_driver_info_2_am335x_mmc0
 .u_boot_list_2_driver_info_2_am335x_mmc1
                0x0000000040302854        0x8 board/ti/am335x/built-in.o
                0x0000000040302854                _u_boot_list_2_driver_info_2_am335x_mmc1
 .u_boot_list_2_driver_info_2_am33xx_gpios
                0x000000004030285c       0x20 arch/arm/mach-omap2/built-in.o
                0x000000004030285c                _u_boot_list_2_driver_info_2_am33xx_gpios
 .u_boot_list_2_driver_info_2_am33xx_uarts
                0x000000004030287c       0x30 arch/arm/mach-omap2/built-in.o
                0x000000004030287c                _u_boot_list_2_driver_info_2_am33xx_uarts
 .u_boot_list_2_driver_info_3
                0x00000000403028ac        0x0 drivers/built-in.o
 .u_boot_list_2_env_clbk_1
                0x00000000403028ac        0x0 env/built-in.o
 .u_boot_list_2_env_clbk_3
                0x00000000403028ac        0x0 env/built-in.o
 .u_boot_list_2_env_driver_1
                0x00000000403028ac        0x0 env/built-in.o
 .u_boot_list_2_env_driver_2_fat
                0x00000000403028ac       0x14 env/built-in.o
                0x00000000403028ac                _u_boot_list_2_env_driver_2_fat
 .u_boot_list_2_env_driver_2_mmc
                0x00000000403028c0       0x14 env/built-in.o
                0x00000000403028c0                _u_boot_list_2_env_driver_2_mmc
 .u_boot_list_2_env_driver_3
                0x00000000403028d4        0x0 env/built-in.o
 .u_boot_list_2_i2c_1
                0x00000000403028d4        0x0 drivers/built-in.o
 .u_boot_list_2_i2c_2_omap24_0
                0x00000000403028d4       0x2c drivers/built-in.o
                0x00000000403028d4                _u_boot_list_2_i2c_2_omap24_0
 .u_boot_list_2_i2c_2_omap24_1
                0x0000000040302900       0x2c drivers/built-in.o
                0x0000000040302900                _u_boot_list_2_i2c_2_omap24_1
 .u_boot_list_2_i2c_2_omap24_2
                0x000000004030292c       0x2c drivers/built-in.o
                0x000000004030292c                _u_boot_list_2_i2c_2_omap24_2
 .u_boot_list_2_i2c_3
                0x0000000040302958        0x0 drivers/built-in.o
 .u_boot_list_2_part_driver_1
                0x0000000040302958        0x0 disk/built-in.o
 .u_boot_list_2_part_driver_2_a_efi
                0x0000000040302958       0x18 disk/built-in.o
                0x0000000040302958                _u_boot_list_2_part_driver_2_a_efi
 .u_boot_list_2_part_driver_2_dos
                0x0000000040302970       0x18 disk/built-in.o
                0x0000000040302970                _u_boot_list_2_part_driver_2_dos
 .u_boot_list_2_part_driver_3
                0x0000000040302988        0x0 disk/built-in.o
 .u_boot_list_2_spl_image_loader_1
                0x0000000040302988        0x0 common/spl/built-in.o
 .u_boot_list_2_spl_image_loader_2_spl_mmc_load_image0BOOT_DEVICE_MMC1
                0x0000000040302988        0xc common/spl/built-in.o
                0x0000000040302988                _u_boot_list_2_spl_image_loader_2_spl_mmc_load_image0BOOT_DEVICE_MMC1
 .u_boot_list_2_spl_image_loader_2_spl_mmc_load_image0BOOT_DEVICE_MMC2
                0x0000000040302994        0xc common/spl/built-in.o
                0x0000000040302994                _u_boot_list_2_spl_image_loader_2_spl_mmc_load_image0BOOT_DEVICE_MMC2
 .u_boot_list_2_spl_image_loader_2_spl_mmc_load_image0BOOT_DEVICE_MMC2_2
                0x00000000403029a0        0xc common/spl/built-in.o
                0x00000000403029a0                _u_boot_list_2_spl_image_loader_2_spl_mmc_load_image0BOOT_DEVICE_MMC2_2
 .u_boot_list_2_spl_image_loader_2_spl_ymodem_load_image0BOOT_DEVICE_UART
                0x00000000403029ac        0xc common/spl/built-in.o
                0x00000000403029ac                _u_boot_list_2_spl_image_loader_2_spl_ymodem_load_image0BOOT_DEVICE_UART
 .u_boot_list_2_spl_image_loader_3
                0x00000000403029b8        0x0 common/spl/built-in.o
 .u_boot_list_2_uclass_1
                0x00000000403029b8        0x0 drivers/built-in.o
 .u_boot_list_2_uclass_2_gpio
                0x00000000403029b8       0x48 drivers/built-in.o
                0x00000000403029b8                _u_boot_list_2_uclass_2_gpio
 .u_boot_list_2_uclass_2_root
                0x0000000040302a00       0x48 drivers/built-in.o
                0x0000000040302a00                _u_boot_list_2_uclass_2_root
 .u_boot_list_2_uclass_2_serial
                0x0000000040302a48       0x48 drivers/built-in.o
                0x0000000040302a48                _u_boot_list_2_uclass_2_serial
 .u_boot_list_2_uclass_3
                0x0000000040302a90        0x0 drivers/built-in.o
                0x0000000040302a90                . = ALIGN (0x4)
                0x0000000040302a90                __image_copy_end = .

.end
 *(.__end)
                0x0000000040302a90                _image_binary_end = .

.bss            0x0000000080a00000    0x105fc
                0x0000000080a00000                . = ALIGN (0x4)
                0x0000000080a00000                __bss_start = .
 *(.bss*)
 .bss.fat_registered
                0x0000000080a00000        0x4 common/spl/built-in.o
 .bss.xyz       0x0000000080a00004      0x434 common/built-in.o
 .bss.mem_malloc_brk
                0x0000000080a00438        0x4 common/built-in.o
                0x0000000080a00438                mem_malloc_brk
 .bss.mem_malloc_end
                0x0000000080a0043c        0x4 common/built-in.o
                0x0000000080a0043c                mem_malloc_end
 .bss.mem_malloc_start
                0x0000000080a00440        0x4 common/built-in.o
                0x0000000080a00440                mem_malloc_start
 .bss.stdio_devices
                0x0000000080a00444        0xc common/built-in.o
                0x0000000080a00444                stdio_devices
 .bss.env_flags
                0x0000000080a00450        0x1 env/built-in.o
 *fill*         0x0000000080a00451        0x3 
 .bss.flags_list
                0x0000000080a00454        0x4 env/built-in.o
 .bss.callback_list
                0x0000000080a00458        0x4 env/built-in.o
 .bss.env_mmc_orig_hwpart
                0x0000000080a0045c        0x1 env/built-in.o
 *fill*         0x0000000080a0045d        0x3 
 .bss.errno     0x0000000080a00460        0x4 lib/built-in.o
                0x0000000080a00460                errno
 .bss.name.8468
                0x0000000080a00464       0x25 disk/built-in.o
 *fill*         0x0000000080a00489        0x3 
 .bss.initialized.10060
                0x0000000080a0048c        0x4 drivers/built-in.o
 .bss.mmc_devices
                0x0000000080a00490        0x8 drivers/built-in.o
 .bss.gadget    0x0000000080a00498        0x4 drivers/built-in.o
 .bss.musb_host
                0x0000000080a0049c       0x60 drivers/built-in.o
                0x0000000080a0049c                musb_host
 .bss.cur_dev   0x0000000080a004fc        0x4 fs/built-in.o
 .bss.cur_part_info
                0x0000000080a00500       0x78 fs/built-in.o
 *fill*         0x0000000080a00578        0x8 
 .bss.get_contents_vfatname_block
                0x0000000080a00580    0x10000 fs/built-in.o
                0x0000000080a00580                get_contents_vfatname_block
 .bss.num_of_fats
                0x0000000080a10580        0x1 fs/built-in.o
 *fill*         0x0000000080a10581        0x3 
 .bss.total_sector
                0x0000000080a10584        0x4 fs/built-in.o
 .bss.ext_fs    0x0000000080a10588       0x48 fs/built-in.o
                0x0000000080a10588                ext_fs
 .bss.ext4fs_file
                0x0000000080a105d0        0x4 fs/built-in.o
                0x0000000080a105d0                ext4fs_file
 .bss.ext4fs_indir1_block
                0x0000000080a105d4        0x4 fs/built-in.o
                0x0000000080a105d4                ext4fs_indir1_block
 .bss.ext4fs_indir1_size
                0x0000000080a105d8        0x4 fs/built-in.o
                0x0000000080a105d8                ext4fs_indir1_size
 .bss.ext4fs_indir2_block
                0x0000000080a105dc        0x4 fs/built-in.o
                0x0000000080a105dc                ext4fs_indir2_block
 .bss.ext4fs_indir2_size
                0x0000000080a105e0        0x4 fs/built-in.o
                0x0000000080a105e0                ext4fs_indir2_size
 .bss.ext4fs_indir3_block
                0x0000000080a105e4        0x4 fs/built-in.o
                0x0000000080a105e4                ext4fs_indir3_block
 .bss.ext4fs_indir3_size
                0x0000000080a105e8        0x4 fs/built-in.o
                0x0000000080a105e8                ext4fs_indir3_size
 .bss.ext4fs_root
                0x0000000080a105ec        0x4 fs/built-in.o
                0x0000000080a105ec                ext4fs_root
 .bss.symlinknest
                0x0000000080a105f0        0x4 fs/built-in.o
 .bss.part_info
                0x0000000080a105f4        0x4 fs/built-in.o
 .bss.part_offset
                0x0000000080a105f8        0x4 fs/built-in.o
                0x0000000080a105f8                part_offset
                0x0000000080a105fc                . = ALIGN (0x4)
                0x0000000080a105fc                __bss_end = .
Address of section .text set to 0x402f0400
LOAD arch/arm/cpu/armv7/start.o
START GROUP
LOAD arch/arm/mach-omap2/built-in.o
LOAD arch/arm/cpu/armv7/built-in.o
LOAD arch/arm/cpu/built-in.o
LOAD arch/arm/lib/built-in.o
LOAD board/ti/am335x/built-in.o
LOAD board/ti/common/built-in.o
LOAD common/spl/built-in.o
LOAD common/init/built-in.o
LOAD common/built-in.o
LOAD cmd/built-in.o
LOAD env/built-in.o
LOAD lib/built-in.o
LOAD disk/built-in.o
LOAD drivers/built-in.o
LOAD dts/built-in.o
LOAD fs/built-in.o
END GROUP
LOAD arch/arm/lib/eabi_compat.o
LOAD arch/arm/lib/lib.a
OUTPUT(u-boot-spl elf32-littlearm)

.ARM.attributes
                0x0000000000000000       0x2b
 .ARM.attributes
                0x0000000000000000       0x1d arch/arm/cpu/armv7/start.o
 .ARM.attributes
                0x000000000000001d       0x2d arch/arm/mach-omap2/built-in.o
 .ARM.attributes
                0x000000000000004a       0x2b arch/arm/cpu/armv7/built-in.o
 .ARM.attributes
                0x0000000000000075       0x29 arch/arm/lib/built-in.o
 .ARM.attributes
                0x000000000000009e       0x2d board/ti/am335x/built-in.o
 .ARM.attributes
                0x00000000000000cb       0x2d board/ti/common/built-in.o
 .ARM.attributes
                0x00000000000000f8       0x2d common/spl/built-in.o
 .ARM.attributes
                0x0000000000000125       0x2d common/init/built-in.o
 .ARM.attributes
                0x0000000000000152       0x2d common/built-in.o
 .ARM.attributes
                0x000000000000017f       0x2d cmd/built-in.o
 .ARM.attributes
                0x00000000000001ac       0x2d env/built-in.o
 .ARM.attributes
                0x00000000000001d9       0x2d lib/built-in.o
 .ARM.attributes
                0x0000000000000206       0x2d disk/built-in.o
 .ARM.attributes
                0x0000000000000233       0x2d drivers/built-in.o
 .ARM.attributes
                0x0000000000000260       0x2d fs/built-in.o
 .ARM.attributes
                0x000000000000028d       0x1d arch/arm/lib/lib.a(lib1funcs.o)
 .ARM.attributes
                0x00000000000002aa       0x2d arch/arm/lib/lib.a(div0.o)

.comment        0x0000000000000000       0x30
 .comment       0x0000000000000000       0x30 arch/arm/mach-omap2/built-in.o
                                        0x3a3 (size before relaxing)
 .comment       0x0000000000000030       0xc4 arch/arm/cpu/armv7/built-in.o
 .comment       0x0000000000000030      0x1ea arch/arm/lib/built-in.o
 .comment       0x0000000000000030       0x62 board/ti/am335x/built-in.o
 .comment       0x0000000000000030       0x31 board/ti/common/built-in.o
 .comment       0x0000000000000030       0xf5 common/spl/built-in.o
 .comment       0x0000000000000030       0x31 common/init/built-in.o
 .comment       0x0000000000000030      0x2ae common/built-in.o
 .comment       0x0000000000000030       0x31 cmd/built-in.o
 .comment       0x0000000000000030      0x157 env/built-in.o
 .comment       0x0000000000000030      0x620 lib/built-in.o
 .comment       0x0000000000000030       0x93 disk/built-in.o
 .comment       0x0000000000000030      0x4fa drivers/built-in.o
 .comment       0x0000000000000030      0x188 fs/built-in.o
 .comment       0x0000000000000030       0x31 arch/arm/lib/lib.a(div0.o)

.note.GNU-stack
                0x0000000000000000        0x0
 .note.GNU-stack
                0x0000000000000000        0x0 arch/arm/mach-omap2/built-in.o
 .note.GNU-stack
                0x0000000000000000        0x0 arch/arm/cpu/armv7/built-in.o
 .note.GNU-stack
                0x0000000000000000        0x0 arch/arm/lib/built-in.o
 .note.GNU-stack
                0x0000000000000000        0x0 board/ti/am335x/built-in.o
 .note.GNU-stack
                0x0000000000000000        0x0 board/ti/common/built-in.o
 .note.GNU-stack
                0x0000000000000000        0x0 common/spl/built-in.o
 .note.GNU-stack
                0x0000000000000000        0x0 common/init/built-in.o
 .note.GNU-stack
                0x0000000000000000        0x0 common/built-in.o
 .note.GNU-stack
                0x0000000000000000        0x0 cmd/built-in.o
 .note.GNU-stack
                0x0000000000000000        0x0 env/built-in.o
 .note.GNU-stack
                0x0000000000000000        0x0 lib/built-in.o
 .note.GNU-stack
                0x0000000000000000        0x0 disk/built-in.o
 .note.GNU-stack
                0x0000000000000000        0x0 drivers/built-in.o
 .note.GNU-stack
                0x0000000000000000        0x0 fs/built-in.o
 .note.GNU-stack
                0x0000000000000000        0x0 arch/arm/lib/lib.a(div0.o)

.debug_line     0x0000000000000000    0x1c1b6
 .debug_line    0x0000000000000000       0x89 arch/arm/cpu/armv7/start.o
 .debug_line    0x0000000000000089     0x29df arch/arm/mach-omap2/built-in.o
 .debug_line    0x0000000000002a68      0x72b arch/arm/cpu/armv7/built-in.o
 .debug_line    0x0000000000003193     0x1303 arch/arm/lib/built-in.o
 .debug_line    0x0000000000004496      0x948 board/ti/am335x/built-in.o
 .debug_line    0x0000000000004dde      0x46f board/ti/common/built-in.o
 .debug_line    0x000000000000524d      0xdc6 common/spl/built-in.o
 .debug_line    0x0000000000006013      0x1b8 common/init/built-in.o
 .debug_line    0x00000000000061cb     0x3839 common/built-in.o
 .debug_line    0x0000000000009a04      0x3ac cmd/built-in.o
 .debug_line    0x0000000000009db0     0x10c6 env/built-in.o
 .debug_line    0x000000000000ae76     0x4ebd lib/built-in.o
 .debug_line    0x000000000000fd33     0x119f disk/built-in.o
 .debug_line    0x0000000000010ed2     0x7f4a drivers/built-in.o
 .debug_line    0x0000000000018e1c     0x3267 fs/built-in.o
 .debug_line    0x000000000001c083       0xf1 arch/arm/lib/lib.a(lib1funcs.o)
 .debug_line    0x000000000001c174       0x42 arch/arm/lib/lib.a(div0.o)

.debug_info     0x0000000000000000    0xe77d6
 .debug_info    0x0000000000000000       0x26 arch/arm/cpu/armv7/start.o
 .debug_info    0x0000000000000026    0x25a84 arch/arm/mach-omap2/built-in.o
 .debug_info    0x0000000000025aaa     0x3017 arch/arm/cpu/armv7/built-in.o
 .debug_info    0x0000000000028ac1     0x85ab arch/arm/lib/built-in.o
 .debug_info    0x000000000003106c     0x7856 board/ti/am335x/built-in.o
 .debug_info    0x00000000000388c2     0x37a7 board/ti/common/built-in.o
 .debug_info    0x000000000003c069     0x8b1a common/spl/built-in.o
 .debug_info    0x0000000000044b83      0xfa5 common/init/built-in.o
 .debug_info    0x0000000000045b28    0x19cd1 common/built-in.o
 .debug_info    0x000000000005f7f9     0x1ae0 cmd/built-in.o
 .debug_info    0x00000000000612d9     0x99ad env/built-in.o
 .debug_info    0x000000000006ac86    0x1bb36 lib/built-in.o
 .debug_info    0x00000000000867bc     0x71a2 disk/built-in.o
 .debug_info    0x000000000008d95e    0x434f1 drivers/built-in.o
 .debug_info    0x00000000000d0e4f    0x1690e fs/built-in.o
 .debug_info    0x00000000000e775d       0x22 arch/arm/lib/lib.a(lib1funcs.o)
 .debug_info    0x00000000000e777f       0x57 arch/arm/lib/lib.a(div0.o)

.debug_abbrev   0x0000000000000000    0x1c966
 .debug_abbrev  0x0000000000000000       0x14 arch/arm/cpu/armv7/start.o
 .debug_abbrev  0x0000000000000014     0x35d2 arch/arm/mach-omap2/built-in.o
 .debug_abbrev  0x00000000000035e6      0x9a3 arch/arm/cpu/armv7/built-in.o
 .debug_abbrev  0x0000000000003f89     0x16c6 arch/arm/lib/built-in.o
 .debug_abbrev  0x000000000000564f      0x81a board/ti/am335x/built-in.o
 .debug_abbrev  0x0000000000005e69      0x531 board/ti/common/built-in.o
 .debug_abbrev  0x000000000000639a     0x137c common/spl/built-in.o
 .debug_abbrev  0x0000000000007716      0x2aa common/init/built-in.o
 .debug_abbrev  0x00000000000079c0     0x3670 common/built-in.o
 .debug_abbrev  0x000000000000b030      0x448 cmd/built-in.o
 .debug_abbrev  0x000000000000b478     0x19fb env/built-in.o
 .debug_abbrev  0x000000000000ce73     0x5169 lib/built-in.o
 .debug_abbrev  0x0000000000011fdc      0xf93 disk/built-in.o
 .debug_abbrev  0x0000000000012f6f     0x7657 drivers/built-in.o
 .debug_abbrev  0x000000000001a5c6     0x2330 fs/built-in.o
 .debug_abbrev  0x000000000001c8f6       0x12 arch/arm/lib/lib.a(lib1funcs.o)
 .debug_abbrev  0x000000000001c908       0x5e arch/arm/lib/lib.a(div0.o)

.debug_aranges  0x0000000000000000     0x30c8
 .debug_aranges
                0x0000000000000000       0x20 arch/arm/cpu/armv7/start.o
 .debug_aranges
                0x0000000000000020      0x468 arch/arm/mach-omap2/built-in.o
 .debug_aranges
                0x0000000000000488      0x128 arch/arm/cpu/armv7/built-in.o
 .debug_aranges
                0x00000000000005b0      0x2c0 arch/arm/lib/built-in.o
 .debug_aranges
                0x0000000000000870       0xd8 board/ti/am335x/built-in.o
 .debug_aranges
                0x0000000000000948       0xa8 board/ti/common/built-in.o
 .debug_aranges
                0x00000000000009f0      0x140 common/spl/built-in.o
 .debug_aranges
                0x0000000000000b30       0x30 common/init/built-in.o
 .debug_aranges
                0x0000000000000b60      0x690 common/built-in.o
 .debug_aranges
                0x00000000000011f0       0x80 cmd/built-in.o
 .debug_aranges
                0x0000000000001270      0x1a8 env/built-in.o
 .debug_aranges
                0x0000000000001418      0xa58 lib/built-in.o
 .debug_aranges
                0x0000000000001e70      0x170 disk/built-in.o
 .debug_aranges
                0x0000000000001fe0      0xca0 drivers/built-in.o
 .debug_aranges
                0x0000000000002c80      0x3e0 fs/built-in.o
 .debug_aranges
                0x0000000000003060       0x48 arch/arm/lib/lib.a(lib1funcs.o)
 .debug_aranges
                0x00000000000030a8       0x20 arch/arm/lib/lib.a(div0.o)

.debug_str      0x0000000000000000    0x14612
 .debug_str     0x0000000000000000       0x48 arch/arm/cpu/armv7/start.o
 .debug_str     0x0000000000000048     0x66e2 arch/arm/mach-omap2/built-in.o
                                      0x27e0e (size before relaxing)
 .debug_str     0x000000000000672a      0x384 arch/arm/cpu/armv7/built-in.o
                                       0x2704 (size before relaxing)
 .debug_str     0x0000000000006aae      0x519 arch/arm/lib/built-in.o
                                       0x7323 (size before relaxing)
 .debug_str     0x0000000000006fc7     0x12e0 board/ti/am335x/built-in.o
                                       0x6ba5 (size before relaxing)
 .debug_str     0x00000000000082a7      0x287 board/ti/common/built-in.o
                                       0x39cf (size before relaxing)
 .debug_str     0x000000000000852e     0x1806 common/spl/built-in.o
                                       0x70eb (size before relaxing)
 .debug_str     0x0000000000009d34       0x55 common/init/built-in.o
                                        0xf77 (size before relaxing)
 .debug_str     0x0000000000009d89     0x23af common/built-in.o
                                      0x11548 (size before relaxing)
 .debug_str     0x000000000000c138       0xf6 cmd/built-in.o
                                       0x1200 (size before relaxing)
 .debug_str     0x000000000000c22e      0x877 env/built-in.o
                                       0x7691 (size before relaxing)
 .debug_str     0x000000000000caa5     0x183a lib/built-in.o
                                      0x10cea (size before relaxing)
 .debug_str     0x000000000000e2df      0x89d disk/built-in.o
                                       0x3944 (size before relaxing)
 .debug_str     0x000000000000eb7c     0x3ec5 drivers/built-in.o
                                      0x27a72 (size before relaxing)
 .debug_str     0x0000000000012a41     0x1b9d fs/built-in.o
                                       0xb886 (size before relaxing)
 .debug_str     0x00000000000145de       0x19 arch/arm/lib/lib.a(lib1funcs.o)
                                         0x46 (size before relaxing)
 .debug_str     0x00000000000145f7       0x1b arch/arm/lib/lib.a(div0.o)
                                        0x172 (size before relaxing)

.debug_frame    0x0000000000000000     0x8668
 .debug_frame   0x0000000000000000      0x850 arch/arm/mach-omap2/built-in.o
 .debug_frame   0x0000000000000850      0x1ec arch/arm/cpu/armv7/built-in.o
 .debug_frame   0x0000000000000a3c      0x3a8 arch/arm/lib/built-in.o
 .debug_frame   0x0000000000000de4      0x210 board/ti/am335x/built-in.o
 .debug_frame   0x0000000000000ff4      0x1cc board/ti/common/built-in.o
 .debug_frame   0x00000000000011c0      0x300 common/spl/built-in.o
 .debug_frame   0x00000000000014c0       0x48 common/init/built-in.o
 .debug_frame   0x0000000000001508     0x1360 common/built-in.o
 .debug_frame   0x0000000000002868      0x1b0 cmd/built-in.o
 .debug_frame   0x0000000000002a18      0x438 env/built-in.o
 .debug_frame   0x0000000000002e50     0x1e70 lib/built-in.o
 .debug_frame   0x0000000000004cc0      0x5bc disk/built-in.o
 .debug_frame   0x000000000000527c     0x25f8 drivers/built-in.o
 .debug_frame   0x0000000000007874      0xdd4 fs/built-in.o
 .debug_frame   0x0000000000008648       0x20 arch/arm/lib/lib.a(div0.o)

.debug_loc      0x0000000000000000    0x4c809
 .debug_loc     0x0000000000000000     0x2657 arch/arm/mach-omap2/built-in.o
 .debug_loc     0x0000000000002657      0x43a arch/arm/cpu/armv7/built-in.o
 .debug_loc     0x0000000000002a91      0x90a arch/arm/lib/built-in.o
 .debug_loc     0x000000000000339b      0x21b board/ti/am335x/built-in.o
 .debug_loc     0x00000000000035b6      0x7ab board/ti/common/built-in.o
 .debug_loc     0x0000000000003d61     0x1328 common/spl/built-in.o
 .debug_loc     0x0000000000005089       0xca common/init/built-in.o
 .debug_loc     0x0000000000005153     0x9ed7 common/built-in.o
 .debug_loc     0x000000000000f02a      0x8cd cmd/built-in.o
 .debug_loc     0x000000000000f8f7     0x1ba7 env/built-in.o
 .debug_loc     0x000000000001149e    0x166cd lib/built-in.o
 .debug_loc     0x0000000000027b6b     0x2c7f disk/built-in.o
 .debug_loc     0x000000000002a7ea    0x15a08 drivers/built-in.o
 .debug_loc     0x00000000000401f2     0xc617 fs/built-in.o

.debug_ranges   0x0000000000000000     0x7198
 .debug_ranges  0x0000000000000000      0x718 arch/arm/mach-omap2/built-in.o
 .debug_ranges  0x0000000000000718      0x128 arch/arm/cpu/armv7/built-in.o
 .debug_ranges  0x0000000000000840      0x190 arch/arm/lib/built-in.o
 .debug_ranges  0x00000000000009d0      0x140 board/ti/am335x/built-in.o
 .debug_ranges  0x0000000000000b10       0xe0 board/ti/common/built-in.o
 .debug_ranges  0x0000000000000bf0      0x268 common/spl/built-in.o
 .debug_ranges  0x0000000000000e58       0x20 common/init/built-in.o
 .debug_ranges  0x0000000000000e78      0xba8 common/built-in.o
 .debug_ranges  0x0000000000001a20       0xe8 cmd/built-in.o
 .debug_ranges  0x0000000000001b08      0x328 env/built-in.o
 .debug_ranges  0x0000000000001e30     0x13e0 lib/built-in.o
 .debug_ranges  0x0000000000003210      0x6b8 disk/built-in.o
 .debug_ranges  0x00000000000038c8     0x2648 drivers/built-in.o
 .debug_ranges  0x0000000000005f10     0x1238 fs/built-in.o
 .debug_ranges  0x0000000000007148       0x40 arch/arm/lib/lib.a(lib1funcs.o)
 .debug_ranges  0x0000000000007188       0x10 arch/arm/lib/lib.a(div0.o)
